ARM GAS  /var/folders/rz/lph8rwt12pb77g4kvq2dx3yc0000gn/T//ccjleQtO.s 			page 1


   1              		.cpu cortex-m4
   2              		.eabi_attribute 27, 1
   3              		.eabi_attribute 28, 1
   4              		.eabi_attribute 20, 1
   5              		.eabi_attribute 21, 1
   6              		.eabi_attribute 23, 3
   7              		.eabi_attribute 24, 1
   8              		.eabi_attribute 25, 1
   9              		.eabi_attribute 26, 1
  10              		.eabi_attribute 30, 2
  11              		.eabi_attribute 34, 1
  12              		.eabi_attribute 18, 4
  13              		.file	"find_path_to_exit.c"
  14              		.text
  15              	.Ltext0:
  16              		.cfi_sections	.debug_frame
  17              		.section	.text.get_front_wall,"ax",%progbits
  18              		.align	1
  19              		.p2align 4,,15
  20              		.global	get_front_wall
  21              		.syntax unified
  22              		.thumb
  23              		.thumb_func
  24              		.fpu fpv4-sp-d16
  25              		.type	get_front_wall, %function
  26              	get_front_wall:
  27              	.LFB257:
  28              		.file 1 "find_path_to_exit.c"
  29              		.loc 1 23 0
  30              		.cfi_startproc
  31              		@ args = 0, pretend = 0, frame = 8
  32              		@ frame_needed = 0, uses_anonymous_args = 0
  33 0000 00B5     		push	{lr}
  34              		.cfi_def_cfa_offset 4
  35              		.cfi_offset 14, -4
  36 0002 074B     		ldr	r3, .L6
  37              		.loc 1 24 0
  38 0004 0749     		ldr	r1, .L6+4
  39              		.loc 1 23 0
  40 0006 1A68     		ldr	r2, [r3]
  41              		.loc 1 25 0
  42 0008 0878     		ldrb	r0, [r1]	@ zero_extendqisi2
  43              		.loc 1 23 0
  44 000a 83B0     		sub	sp, sp, #12
  45              		.cfi_def_cfa_offset 16
  46              		.loc 1 23 0
  47 000c 0192     		str	r2, [sp, #4]
  48              		.loc 1 25 0
  49 000e 019A     		ldr	r2, [sp, #4]
  50 0010 1B68     		ldr	r3, [r3]
  51 0012 9A42     		cmp	r2, r3
  52 0014 02D1     		bne	.L5
  53 0016 03B0     		add	sp, sp, #12
  54              		.cfi_remember_state
  55              		.cfi_def_cfa_offset 4
  56              		@ sp needed
  57 0018 5DF804FB 		ldr	pc, [sp], #4
ARM GAS  /var/folders/rz/lph8rwt12pb77g4kvq2dx3yc0000gn/T//ccjleQtO.s 			page 2


  58              	.L5:
  59              		.cfi_restore_state
  60 001c FFF7FEFF 		bl	__stack_chk_fail
  61              	.LVL0:
  62              	.L7:
  63              		.align	2
  64              	.L6:
  65 0020 00000000 		.word	__stack_chk_guard
  66 0024 00000000 		.word	.LANCHOR0
  67              		.cfi_endproc
  68              	.LFE257:
  69              		.size	get_front_wall, .-get_front_wall
  70              		.section	.text.set_front_wall,"ax",%progbits
  71              		.align	1
  72              		.p2align 4,,15
  73              		.global	set_front_wall
  74              		.syntax unified
  75              		.thumb
  76              		.thumb_func
  77              		.fpu fpv4-sp-d16
  78              		.type	set_front_wall, %function
  79              	set_front_wall:
  80              	.LFB258:
  81              		.loc 1 27 0
  82              		.cfi_startproc
  83              		@ args = 0, pretend = 0, frame = 8
  84              		@ frame_needed = 0, uses_anonymous_args = 0
  85              	.LVL1:
  86 0000 00B5     		push	{lr}
  87              		.cfi_def_cfa_offset 4
  88              		.cfi_offset 14, -4
  89 0002 074B     		ldr	r3, .L12
  90              		.loc 1 28 0
  91 0004 0749     		ldr	r1, .L12+4
  92              		.loc 1 27 0
  93 0006 1A68     		ldr	r2, [r3]
  94              		.loc 1 28 0
  95 0008 0870     		strb	r0, [r1]
  96              		.loc 1 27 0
  97 000a 83B0     		sub	sp, sp, #12
  98              		.cfi_def_cfa_offset 16
  99              		.loc 1 27 0
 100 000c 0192     		str	r2, [sp, #4]
 101              		.loc 1 29 0
 102 000e 019A     		ldr	r2, [sp, #4]
 103 0010 1B68     		ldr	r3, [r3]
 104 0012 9A42     		cmp	r2, r3
 105 0014 02D1     		bne	.L11
 106 0016 03B0     		add	sp, sp, #12
 107              		.cfi_remember_state
 108              		.cfi_def_cfa_offset 4
 109              		@ sp needed
 110 0018 5DF804FB 		ldr	pc, [sp], #4
 111              	.L11:
 112              		.cfi_restore_state
 113 001c FFF7FEFF 		bl	__stack_chk_fail
 114              	.LVL2:
ARM GAS  /var/folders/rz/lph8rwt12pb77g4kvq2dx3yc0000gn/T//ccjleQtO.s 			page 3


 115              	.L13:
 116              		.align	2
 117              	.L12:
 118 0020 00000000 		.word	__stack_chk_guard
 119 0024 00000000 		.word	.LANCHOR0
 120              		.cfi_endproc
 121              	.LFE258:
 122              		.size	set_front_wall, .-set_front_wall
 123              		.global	__aeabi_i2d
 124              		.global	__aeabi_dcmplt
 125              		.section	.text.pi_regulator,"ax",%progbits
 126              		.align	1
 127              		.p2align 4,,15
 128              		.global	pi_regulator
 129              		.syntax unified
 130              		.thumb
 131              		.thumb_func
 132              		.fpu fpv4-sp-d16
 133              		.type	pi_regulator, %function
 134              	pi_regulator:
 135              	.LFB259:
 136              		.loc 1 40 0
 137              		.cfi_startproc
 138              		@ args = 0, pretend = 0, frame = 8
 139              		@ frame_needed = 0, uses_anonymous_args = 0
 140              	.LVL3:
 141 0000 70B5     		push	{r4, r5, r6, lr}
 142              		.cfi_def_cfa_offset 16
 143              		.cfi_offset 4, -16
 144              		.cfi_offset 5, -12
 145              		.cfi_offset 6, -8
 146              		.cfi_offset 14, -4
 147              		.loc 1 45 0
 148 0002 411A     		subs	r1, r0, r1
 149              	.LVL4:
 150 0004 8DB2     		uxth	r5, r1
 151              		.loc 1 40 0
 152 0006 2E4E     		ldr	r6, .L30+8
 153 0008 82B0     		sub	sp, sp, #8
 154              		.cfi_def_cfa_offset 24
 155              		.loc 1 45 0
 156 000a 2CB2     		sxth	r4, r5
 157              		.loc 1 40 0
 158 000c 3368     		ldr	r3, [r6]
 159 000e 0193     		str	r3, [sp, #4]
 160              	.LVL5:
 161              		.loc 1 48 0
 162 0010 2046     		mov	r0, r4
 163              	.LVL6:
 164 0012 FFF7FEFF 		bl	__aeabi_i2d
 165              	.LVL7:
 166 0016 21F00043 		bic	r3, r1, #-2147483648
 167 001a 1946     		mov	r1, r3
 168 001c 26A3     		adr	r3, .L30
 169 001e D3E90023 		ldrd	r2, [r3]
 170 0022 FFF7FEFF 		bl	__aeabi_dcmplt
 171              	.LVL8:
ARM GAS  /var/folders/rz/lph8rwt12pb77g4kvq2dx3yc0000gn/T//ccjleQtO.s 			page 4


 172 0026 0028     		cmp	r0, #0
 173 0028 38D1     		bne	.L15
 174              		.loc 1 52 0
 175 002a 264B     		ldr	r3, .L30+12
 176              		.loc 1 55 0
 177 002c 9FED267A 		vldr.32	s14, .L30+16
 178              		.loc 1 52 0
 179 0030 1988     		ldrh	r1, [r3]
 180 0032 0D44     		add	r5, r5, r1
 181 0034 2DB2     		sxth	r5, r5
 182              		.loc 1 55 0
 183 0036 07EE905A 		vmov	s15, r5	@ int
 184 003a F8EEE77A 		vcvt.f32.s32	s15, s15
 185 003e F4EEC77A 		vcmpe.f32	s15, s14
 186 0042 F1EE10FA 		vmrs	APSR_nzcv, FPSCR
 187 0046 1BDD     		ble	.L25
 188              		.loc 1 56 0
 189 0048 4FF49D72 		mov	r2, #314
 190 004c 9FED1F7A 		vldr.32	s14, .L30+20
 191 0050 1A80     		strh	r2, [r3]	@ movhi
 192              	.L18:
 193              		.loc 1 61 0
 194 0052 04EB8404 		add	r4, r4, r4, lsl #2
 195              	.LVL9:
 196 0056 04EB8404 		add	r4, r4, r4, lsl #2
 197 005a 6401     		lsls	r4, r4, #5
 198 005c 07EE904A 		vmov	s15, r4	@ int
 199 0060 F8EEE77A 		vcvt.f32.s32	s15, s15
 200 0064 77EE877A 		vadd.f32	s15, s15, s14
 201 0068 F5EEC07A 		vcmpe.f32	s15, #0
 202 006c F1EE10FA 		vmrs	APSR_nzcv, FPSCR
 203 0070 13DD     		ble	.L27
 204              		.loc 1 62 0
 205 0072 0020     		movs	r0, #0
 206              	.L20:
 207              		.loc 1 68 0
 208 0074 019A     		ldr	r2, [sp, #4]
 209 0076 3368     		ldr	r3, [r6]
 210 0078 9A42     		cmp	r2, r3
 211 007a 19D1     		bne	.L28
 212 007c 02B0     		add	sp, sp, #8
 213              		.cfi_remember_state
 214              		.cfi_def_cfa_offset 16
 215              		@ sp needed
 216 007e 70BD     		pop	{r4, r5, r6, pc}
 217              	.LVL10:
 218              	.L25:
 219              		.cfi_restore_state
 220              		.loc 1 57 0
 221 0080 9FED137A 		vldr.32	s14, .L30+24
 222 0084 F4EEC77A 		vcmpe.f32	s15, s14
 223 0088 F1EE10FA 		vmrs	APSR_nzcv, FPSCR
 224 008c 08D5     		bpl	.L29
 225              		.loc 1 58 0
 226 008e 4FF6C662 		movw	r2, #65222
 227 0092 9FED107A 		vldr.32	s14, .L30+28
 228 0096 1A80     		strh	r2, [r3]	@ movhi
ARM GAS  /var/folders/rz/lph8rwt12pb77g4kvq2dx3yc0000gn/T//ccjleQtO.s 			page 5


 229 0098 DBE7     		b	.L18
 230              	.LVL11:
 231              	.L27:
 232              		.loc 1 63 0
 233 009a 07D4     		bmi	.L23
 234              	.L15:
 235              		.loc 1 66 0
 236 009c 0220     		movs	r0, #2
 237 009e E9E7     		b	.L20
 238              	.LVL12:
 239              	.L29:
 240 00a0 B0EE0C7A 		vmov.f32	s14, #3.5e+0
 241              		.loc 1 52 0
 242 00a4 1D80     		strh	r5, [r3]	@ movhi
 243 00a6 27EE877A 		vmul.f32	s14, s15, s14
 244 00aa D2E7     		b	.L18
 245              	.LVL13:
 246              	.L23:
 247              		.loc 1 64 0
 248 00ac 0120     		movs	r0, #1
 249 00ae E1E7     		b	.L20
 250              	.L28:
 251              		.loc 1 68 0
 252 00b0 FFF7FEFF 		bl	__stack_chk_fail
 253              	.LVL14:
 254              	.L31:
 255 00b4 AFF30080 		.align	3
 256              	.L30:
 257 00b8 00000000 		.word	0
 258 00bc 00C06240 		.word	1080213504
 259 00c0 00000000 		.word	__stack_chk_guard
 260 00c4 00000000 		.word	.LANCHOR1
 261 00c8 92249D43 		.word	1134371986
 262 00cc 00608944 		.word	1149853696
 263 00d0 92249DC3 		.word	3281855634
 264 00d4 006089C4 		.word	3297337344
 265              		.cfi_endproc
 266              	.LFE259:
 267              		.size	pi_regulator, .-pi_regulator
 268              		.section	.text.wait_after_turned,"ax",%progbits
 269              		.align	1
 270              		.p2align 4,,15
 271              		.global	wait_after_turned
 272              		.syntax unified
 273              		.thumb
 274              		.thumb_func
 275              		.fpu fpv4-sp-d16
 276              		.type	wait_after_turned, %function
 277              	wait_after_turned:
 278              	.LFB260:
 279              		.loc 1 75 0
 280              		.cfi_startproc
 281              		@ args = 0, pretend = 0, frame = 8
 282              		@ frame_needed = 0, uses_anonymous_args = 0
 283              	.LVL15:
 284 0000 F0B5     		push	{r4, r5, r6, r7, lr}
 285              		.cfi_def_cfa_offset 20
ARM GAS  /var/folders/rz/lph8rwt12pb77g4kvq2dx3yc0000gn/T//ccjleQtO.s 			page 6


 286              		.cfi_offset 4, -20
 287              		.cfi_offset 5, -16
 288              		.cfi_offset 6, -12
 289              		.cfi_offset 7, -8
 290              		.cfi_offset 14, -4
 291 0002 1C4D     		ldr	r5, .L39
 292 0004 83B0     		sub	sp, sp, #12
 293              		.cfi_def_cfa_offset 32
 294              		.loc 1 75 0
 295 0006 2B68     		ldr	r3, [r5]
 296 0008 0193     		str	r3, [sp, #4]
 297              	.LVL16:
 298 000a 0746     		mov	r7, r0
 299              	.LBB82:
 300              	.LBB83:
 301              	.LBB84:
 302              	.LBB85:
 303              	.LBB86:
 304              	.LBB87:
 305              	.LBB88:
 306              		.file 2 "../../lib/e-puck2_main-processor/ChibiOS//os/ext/CMSIS/include/core_cmFunc.h"
 307              		.loc 2 546 0
 308 000c 2023     		movs	r3, #32
 309              		.syntax unified
 310              	@ 546 "../../lib/e-puck2_main-processor/ChibiOS//os/ext/CMSIS/include/core_cmFunc.h" 1
 311 000e 83F31188 		MSR basepri, r3
 312              	@ 0 "" 2
 313              	.LVL17:
 314              		.thumb
 315              		.syntax unified
 316              	.LBE88:
 317              	.LBE87:
 318              	.LBE86:
 319              	.LBE85:
 320              	.LBE84:
 321              	.LBB90:
 322              	.LBB91:
 323              		.file 3 "../../lib/e-puck2_main-processor/ChibiOS//os/rt/include/chvt.h"
 324              		.loc 3 231 0
 325 0012 194C     		ldr	r4, .L39+4
 326              	.LBE91:
 327              	.LBE90:
 328              	.LBB93:
 329              	.LBB89:
 330              		.file 4 "../../lib/e-puck2_main-processor/ChibiOS//os/rt/include/chsys.h"
 331              		.loc 4 349 0
 332 0014 FFF7FEFF 		bl	_stats_start_measure_crit_thd
 333              	.LVL18:
 334              		.loc 4 350 0
 335 0018 FFF7FEFF 		bl	_dbg_check_lock
 336              	.LVL19:
 337              	.LBE89:
 338              	.LBE93:
 339              	.LBB94:
 340              	.LBB92:
 341              		.loc 3 231 0
 342 001c A66A     		ldr	r6, [r4, #40]
ARM GAS  /var/folders/rz/lph8rwt12pb77g4kvq2dx3yc0000gn/T//ccjleQtO.s 			page 7


 343              	.LBE92:
 344              	.LBE94:
 345              	.LBB95:
 346              	.LBB96:
 347              		.loc 4 360 0
 348 001e FFF7FEFF 		bl	_dbg_check_unlock
 349              	.LVL20:
 350              		.loc 4 361 0
 351 0022 FFF7FEFF 		bl	_stats_stop_measure_crit_thd
 352              	.LVL21:
 353              		.loc 4 367 0
 354 0026 2368     		ldr	r3, [r4]
 355 0028 A342     		cmp	r3, r4
 356 002a 04D0     		beq	.L33
 357 002c A269     		ldr	r2, [r4, #24]
 358 002e 9B68     		ldr	r3, [r3, #8]
 359 0030 9268     		ldr	r2, [r2, #8]
 360 0032 9A42     		cmp	r2, r3
 361 0034 17D3     		bcc	.L37
 362              	.L33:
 363              	.LVL22:
 364              	.LBB97:
 365              	.LBB98:
 366              	.LBB99:
 367              		.loc 2 546 0
 368 0036 0023     		movs	r3, #0
 369              		.syntax unified
 370              	@ 546 "../../lib/e-puck2_main-processor/ChibiOS//os/ext/CMSIS/include/core_cmFunc.h" 1
 371 0038 83F31188 		MSR basepri, r3
 372              	@ 0 "" 2
 373              	.LVL23:
 374              		.thumb
 375              		.syntax unified
 376              	.LBE99:
 377              	.LBE98:
 378              	.LBE97:
 379              	.LBE96:
 380              	.LBE95:
 381              	.LBE83:
 382              	.LBE82:
 383              		.loc 1 77 0
 384 003c 019A     		ldr	r2, [sp, #4]
 385 003e 2B68     		ldr	r3, [r5]
 386 0040 9A42     		cmp	r2, r3
 387 0042 14D1     		bne	.L38
 388 0044 4FF47A71 		mov	r1, #1000
 389 0048 01FB07F1 		mul	r1, r1, r7
 390 004c 0B4B     		ldr	r3, .L39+8
 391 004e 01F2E731 		addw	r1, r1, #999
 392 0052 A3FB0131 		umull	r3, r1, r3, r1
 393 0056 06EB9111 		add	r1, r6, r1, lsr #6
 394 005a 3046     		mov	r0, r6
 395              		.loc 1 78 0
 396 005c 03B0     		add	sp, sp, #12
 397              		.cfi_remember_state
 398              		.cfi_def_cfa_offset 20
 399              		@ sp needed
ARM GAS  /var/folders/rz/lph8rwt12pb77g4kvq2dx3yc0000gn/T//ccjleQtO.s 			page 8


 400 005e BDE8F040 		pop	{r4, r5, r6, r7, lr}
 401              		.cfi_restore 14
 402              		.cfi_restore 7
 403              		.cfi_restore 6
 404              		.cfi_restore 5
 405              		.cfi_restore 4
 406              		.cfi_def_cfa_offset 0
 407              		.loc 1 77 0
 408 0062 FFF7FEBF 		b	chThdSleepUntilWindowed
 409              	.LVL24:
 410              	.L37:
 411              		.cfi_restore_state
 412              	.LBB103:
 413              	.LBB102:
 414              	.LBB101:
 415              	.LBB100:
 416              		.loc 4 367 0
 417 0066 0648     		ldr	r0, .L39+12
 418 0068 FFF7FEFF 		bl	chSysHalt
 419              	.LVL25:
 420 006c E3E7     		b	.L33
 421              	.L38:
 422              	.LBE100:
 423              	.LBE101:
 424              	.LBE102:
 425              	.LBE103:
 426              		.loc 1 77 0
 427 006e FFF7FEFF 		bl	__stack_chk_fail
 428              	.LVL26:
 429              	.L40:
 430 0072 00BF     		.align	2
 431              	.L39:
 432 0074 00000000 		.word	__stack_chk_guard
 433 0078 00000000 		.word	ch
 434 007c D34D6210 		.word	274877907
 435 0080 00000000 		.word	.LANCHOR2
 436              		.cfi_endproc
 437              	.LFE260:
 438              		.size	wait_after_turned, .-wait_after_turned
 439              		.section	.text.process_pi_regulator,"ax",%progbits
 440              		.align	1
 441              		.p2align 4,,15
 442              		.global	process_pi_regulator
 443              		.syntax unified
 444              		.thumb
 445              		.thumb_func
 446              		.fpu fpv4-sp-d16
 447              		.type	process_pi_regulator, %function
 448              	process_pi_regulator:
 449              	.LFB261:
 450              		.loc 1 83 0
 451              		.cfi_startproc
 452              		@ args = 0, pretend = 0, frame = 8
 453              		@ frame_needed = 0, uses_anonymous_args = 0
 454 0000 30B5     		push	{r4, r5, lr}
 455              		.cfi_def_cfa_offset 12
 456              		.cfi_offset 4, -12
ARM GAS  /var/folders/rz/lph8rwt12pb77g4kvq2dx3yc0000gn/T//ccjleQtO.s 			page 9


 457              		.cfi_offset 5, -8
 458              		.cfi_offset 14, -4
 459 0002 184C     		ldr	r4, .L56
 460 0004 83B0     		sub	sp, sp, #12
 461              		.cfi_def_cfa_offset 24
 462              		.loc 1 83 0
 463 0006 2368     		ldr	r3, [r4]
 464 0008 0193     		str	r3, [sp, #4]
 465              	.LVL27:
 466              		.loc 1 87 0
 467 000a 0220     		movs	r0, #2
 468 000c FFF7FEFF 		bl	get_prox
 469              	.LVL28:
 470 0010 4FF47A71 		mov	r1, #1000
 471 0014 FFF7FEFF 		bl	pi_regulator
 472              	.LVL29:
 473              		.loc 1 89 0
 474 0018 40B9     		cbnz	r0, .L42
 475              		.loc 1 89 0 is_stmt 0 discriminator 1
 476 001a 134B     		ldr	r3, .L56+4
 477 001c 1B78     		ldrb	r3, [r3]	@ zero_extendqisi2
 478 001e A3B9     		cbnz	r3, .L55
 479              	.L41:
 480              		.loc 1 96 0 is_stmt 1
 481 0020 019A     		ldr	r2, [sp, #4]
 482 0022 2368     		ldr	r3, [r4]
 483 0024 9A42     		cmp	r2, r3
 484 0026 0ED1     		bne	.L54
 485 0028 03B0     		add	sp, sp, #12
 486              		.cfi_remember_state
 487              		.cfi_def_cfa_offset 12
 488              		@ sp needed
 489 002a 30BD     		pop	{r4, r5, pc}
 490              	.L42:
 491              		.cfi_restore_state
 492              		.loc 1 92 0
 493 002c 0128     		cmp	r0, #1
 494 002e F7D1     		bne	.L41
 495              		.loc 1 92 0 is_stmt 0 discriminator 1
 496 0030 0D4B     		ldr	r3, .L56+4
 497 0032 1B78     		ldrb	r3, [r3]	@ zero_extendqisi2
 498 0034 002B     		cmp	r3, #0
 499 0036 F3D0     		beq	.L41
 500              	.LBB106:
 501              	.LBB107:
 502              		.loc 1 93 0 is_stmt 1
 503 0038 0220     		movs	r0, #2
 504              	.LVL30:
 505 003a FFF7FEFF 		bl	turn_right
 506              	.LVL31:
 507              		.loc 1 94 0
 508 003e 019A     		ldr	r2, [sp, #4]
 509 0040 2368     		ldr	r3, [r4]
 510 0042 9A42     		cmp	r2, r3
 511 0044 08D0     		beq	.L45
 512              	.L54:
 513              	.LBE107:
ARM GAS  /var/folders/rz/lph8rwt12pb77g4kvq2dx3yc0000gn/T//ccjleQtO.s 			page 10


 514              	.LBE106:
 515              		.loc 1 96 0
 516 0046 FFF7FEFF 		bl	__stack_chk_fail
 517              	.LVL32:
 518              	.L55:
 519              		.loc 1 90 0
 520 004a 0220     		movs	r0, #2
 521              	.LVL33:
 522 004c FFF7FEFF 		bl	turn_left
 523              	.LVL34:
 524              		.loc 1 91 0
 525 0050 019A     		ldr	r2, [sp, #4]
 526 0052 2368     		ldr	r3, [r4]
 527 0054 9A42     		cmp	r2, r3
 528 0056 F6D1     		bne	.L54
 529              	.L45:
 530              	.LBB110:
 531              	.LBB108:
 532              		.loc 1 94 0
 533 0058 0020     		movs	r0, #0
 534              	.LBE108:
 535              	.LBE110:
 536              		.loc 1 96 0
 537 005a 03B0     		add	sp, sp, #12
 538              		.cfi_def_cfa_offset 12
 539              		@ sp needed
 540 005c BDE83040 		pop	{r4, r5, lr}
 541              		.cfi_restore 14
 542              		.cfi_restore 5
 543              		.cfi_restore 4
 544              		.cfi_def_cfa_offset 0
 545              	.LBB111:
 546              	.LBB109:
 547              		.loc 1 94 0
 548 0060 FFF7FEBF 		b	set_direction
 549              	.LVL35:
 550              	.L57:
 551              		.align	2
 552              	.L56:
 553 0064 00000000 		.word	__stack_chk_guard
 554 0068 00000000 		.word	.LANCHOR3
 555              	.LBE109:
 556              	.LBE111:
 557              		.cfi_endproc
 558              	.LFE261:
 559              		.size	process_pi_regulator, .-process_pi_regulator
 560              		.section	.text.backward_correction,"ax",%progbits
 561              		.align	1
 562              		.p2align 4,,15
 563              		.global	backward_correction
 564              		.syntax unified
 565              		.thumb
 566              		.thumb_func
 567              		.fpu fpv4-sp-d16
 568              		.type	backward_correction, %function
 569              	backward_correction:
 570              	.LFB262:
ARM GAS  /var/folders/rz/lph8rwt12pb77g4kvq2dx3yc0000gn/T//ccjleQtO.s 			page 11


 571              		.loc 1 101 0
 572              		.cfi_startproc
 573              		@ args = 0, pretend = 0, frame = 8
 574              		@ frame_needed = 0, uses_anonymous_args = 0
 575 0000 10B5     		push	{r4, lr}
 576              		.cfi_def_cfa_offset 8
 577              		.cfi_offset 4, -8
 578              		.cfi_offset 14, -4
 579 0002 094C     		ldr	r4, .L62
 580 0004 82B0     		sub	sp, sp, #8
 581              		.cfi_def_cfa_offset 16
 582              		.loc 1 101 0
 583 0006 2368     		ldr	r3, [r4]
 584 0008 0193     		str	r3, [sp, #4]
 585              		.loc 1 102 0
 586 000a 0120     		movs	r0, #1
 587 000c FFF7FEFF 		bl	set_direction
 588              	.LVL36:
 589              		.loc 1 103 0
 590 0010 064A     		ldr	r2, .L62+4
 591              		.loc 1 104 0
 592 0012 0198     		ldr	r0, [sp, #4]
 593              		.loc 1 103 0
 594 0014 1388     		ldrh	r3, [r2]
 595              		.loc 1 104 0
 596 0016 2168     		ldr	r1, [r4]
 597              		.loc 1 103 0
 598 0018 0133     		adds	r3, r3, #1
 599              		.loc 1 104 0
 600 001a 8842     		cmp	r0, r1
 601              		.loc 1 103 0
 602 001c 1380     		strh	r3, [r2]	@ movhi
 603              		.loc 1 104 0
 604 001e 01D1     		bne	.L61
 605 0020 02B0     		add	sp, sp, #8
 606              		.cfi_remember_state
 607              		.cfi_def_cfa_offset 8
 608              		@ sp needed
 609 0022 10BD     		pop	{r4, pc}
 610              	.L61:
 611              		.cfi_restore_state
 612 0024 FFF7FEFF 		bl	__stack_chk_fail
 613              	.LVL37:
 614              	.L63:
 615              		.align	2
 616              	.L62:
 617 0028 00000000 		.word	__stack_chk_guard
 618 002c 00000000 		.word	.LANCHOR4
 619              		.cfi_endproc
 620              	.LFE262:
 621              		.size	backward_correction, .-backward_correction
 622              		.section	.text.turn_right_after_backward_correction,"ax",%progbits
 623              		.align	1
 624              		.p2align 4,,15
 625              		.global	turn_right_after_backward_correction
 626              		.syntax unified
 627              		.thumb
ARM GAS  /var/folders/rz/lph8rwt12pb77g4kvq2dx3yc0000gn/T//ccjleQtO.s 			page 12


 628              		.thumb_func
 629              		.fpu fpv4-sp-d16
 630              		.type	turn_right_after_backward_correction, %function
 631              	turn_right_after_backward_correction:
 632              	.LFB263:
 633              		.loc 1 109 0
 634              		.cfi_startproc
 635              		@ args = 0, pretend = 0, frame = 8
 636              		@ frame_needed = 0, uses_anonymous_args = 0
 637 0000 10B5     		push	{r4, lr}
 638              		.cfi_def_cfa_offset 8
 639              		.cfi_offset 4, -8
 640              		.cfi_offset 14, -4
 641 0002 094C     		ldr	r4, .L69
 642 0004 82B0     		sub	sp, sp, #8
 643              		.cfi_def_cfa_offset 16
 644              		.loc 1 109 0
 645 0006 2368     		ldr	r3, [r4]
 646 0008 0193     		str	r3, [sp, #4]
 647              		.loc 1 111 0
 648 000a 5A20     		movs	r0, #90
 649 000c FFF7FEFF 		bl	turn_right
 650              	.LVL38:
 651              		.loc 1 112 0
 652 0010 019A     		ldr	r2, [sp, #4]
 653 0012 2368     		ldr	r3, [r4]
 654 0014 9A42     		cmp	r2, r3
 655 0016 05D1     		bne	.L68
 656 0018 0020     		movs	r0, #0
 657              		.loc 1 113 0
 658 001a 02B0     		add	sp, sp, #8
 659              		.cfi_remember_state
 660              		.cfi_def_cfa_offset 8
 661              		@ sp needed
 662 001c BDE81040 		pop	{r4, lr}
 663              		.cfi_restore 14
 664              		.cfi_restore 4
 665              		.cfi_def_cfa_offset 0
 666              		.loc 1 112 0
 667 0020 FFF7FEBF 		b	set_direction
 668              	.LVL39:
 669              	.L68:
 670              		.cfi_restore_state
 671 0024 FFF7FEFF 		bl	__stack_chk_fail
 672              	.LVL40:
 673              	.L70:
 674              		.align	2
 675              	.L69:
 676 0028 00000000 		.word	__stack_chk_guard
 677              		.cfi_endproc
 678              	.LFE263:
 679              		.size	turn_right_after_backward_correction, .-turn_right_after_backward_correction
 680              		.section	.text.reset_counters_backwarding,"ax",%progbits
 681              		.align	1
 682              		.p2align 4,,15
 683              		.global	reset_counters_backwarding
 684              		.syntax unified
ARM GAS  /var/folders/rz/lph8rwt12pb77g4kvq2dx3yc0000gn/T//ccjleQtO.s 			page 13


 685              		.thumb
 686              		.thumb_func
 687              		.fpu fpv4-sp-d16
 688              		.type	reset_counters_backwarding, %function
 689              	reset_counters_backwarding:
 690              	.LFB264:
 691              		.loc 1 118 0
 692              		.cfi_startproc
 693              		@ args = 0, pretend = 0, frame = 8
 694              		@ frame_needed = 0, uses_anonymous_args = 0
 695 0000 10B5     		push	{r4, lr}
 696              		.cfi_def_cfa_offset 8
 697              		.cfi_offset 4, -8
 698              		.cfi_offset 14, -4
 699 0002 084B     		ldr	r3, .L75
 700              		.loc 1 119 0
 701 0004 084C     		ldr	r4, .L75+4
 702              		.loc 1 118 0
 703 0006 1A68     		ldr	r2, [r3]
 704              		.loc 1 120 0
 705 0008 0848     		ldr	r0, .L75+8
 706              		.loc 1 118 0
 707 000a 82B0     		sub	sp, sp, #8
 708              		.cfi_def_cfa_offset 16
 709              		.loc 1 118 0
 710 000c 0192     		str	r2, [sp, #4]
 711              		.loc 1 121 0
 712 000e 0199     		ldr	r1, [sp, #4]
 713 0010 1A68     		ldr	r2, [r3]
 714              		.loc 1 119 0
 715 0012 0023     		movs	r3, #0
 716              		.loc 1 121 0
 717 0014 9142     		cmp	r1, r2
 718              		.loc 1 119 0
 719 0016 2380     		strh	r3, [r4]	@ movhi
 720              		.loc 1 120 0
 721 0018 0380     		strh	r3, [r0]	@ movhi
 722              		.loc 1 121 0
 723 001a 01D1     		bne	.L74
 724 001c 02B0     		add	sp, sp, #8
 725              		.cfi_remember_state
 726              		.cfi_def_cfa_offset 8
 727              		@ sp needed
 728 001e 10BD     		pop	{r4, pc}
 729              	.L74:
 730              		.cfi_restore_state
 731 0020 FFF7FEFF 		bl	__stack_chk_fail
 732              	.LVL41:
 733              	.L76:
 734              		.align	2
 735              	.L75:
 736 0024 00000000 		.word	__stack_chk_guard
 737 0028 00000000 		.word	.LANCHOR4
 738 002c 00000000 		.word	.LANCHOR5
 739              		.cfi_endproc
 740              	.LFE264:
 741              		.size	reset_counters_backwarding, .-reset_counters_backwarding
ARM GAS  /var/folders/rz/lph8rwt12pb77g4kvq2dx3yc0000gn/T//ccjleQtO.s 			page 14


 742              		.section	.text.check_for_path,"ax",%progbits
 743              		.align	1
 744              		.p2align 4,,15
 745              		.global	check_for_path
 746              		.syntax unified
 747              		.thumb
 748              		.thumb_func
 749              		.fpu fpv4-sp-d16
 750              		.type	check_for_path, %function
 751              	check_for_path:
 752              	.LFB265:
 753              		.loc 1 126 0
 754              		.cfi_startproc
 755              		@ args = 0, pretend = 0, frame = 8
 756              		@ frame_needed = 0, uses_anonymous_args = 0
 757 0000 2DE9F04F 		push	{r4, r5, r6, r7, r8, r9, r10, fp, lr}
 758              		.cfi_def_cfa_offset 36
 759              		.cfi_offset 4, -36
 760              		.cfi_offset 5, -32
 761              		.cfi_offset 6, -28
 762              		.cfi_offset 7, -24
 763              		.cfi_offset 8, -20
 764              		.cfi_offset 9, -16
 765              		.cfi_offset 10, -12
 766              		.cfi_offset 11, -8
 767              		.cfi_offset 14, -4
 768 0004 814D     		ldr	r5, .L117
 769 0006 83B0     		sub	sp, sp, #12
 770              		.cfi_def_cfa_offset 48
 771              		.loc 1 126 0
 772 0008 2B68     		ldr	r3, [r5]
 773 000a 0193     		str	r3, [sp, #4]
 774              		.loc 1 128 0
 775 000c 0220     		movs	r0, #2
 776 000e FFF7FEFF 		bl	get_prox
 777              	.LVL42:
 778 0012 0746     		mov	r7, r0
 779              	.LVL43:
 780              		.loc 1 129 0
 781 0014 0020     		movs	r0, #0
 782 0016 FFF7FEFF 		bl	get_prox
 783              	.LVL44:
 784 001a 86B2     		uxth	r6, r0
 785              	.LVL45:
 786              		.loc 1 130 0
 787 001c 0520     		movs	r0, #5
 788 001e FFF7FEFF 		bl	get_prox
 789              	.LVL46:
 790 0022 8246     		mov	r10, r0
 791              	.LVL47:
 792              		.loc 1 139 0
 793 0024 FFF7FEFF 		bl	get_desired_speed
 794              	.LVL48:
 795 0028 07EE900A 		vmov	s15, r0	@ int
 796 002c F8EEE77A 		vcvt.f32.s32	s15, s15
 797 0030 B2EE0A7A 		vmov.f32	s14, #1.3e+1
 798 0034 67EE877A 		vmul.f32	s15, s15, s14
ARM GAS  /var/folders/rz/lph8rwt12pb77g4kvq2dx3yc0000gn/T//ccjleQtO.s 			page 15


 799 0038 9FED756A 		vldr.32	s12, .L117+4
 800              		.loc 1 138 0
 801 003c DFED756A 		vldr.32	s13, .L117+8
 802              		.loc 1 139 0
 803 0040 87EE867A 		vdiv.f32	s14, s15, s12
 804              		.loc 1 143 0
 805 0044 FA2E     		cmp	r6, #250
 806              		.loc 1 138 0
 807 0046 C6EE877A 		vdiv.f32	s15, s13, s14
 808 004a FCEEE77A 		vcvt.u32.f32	s15, s15
 809 004e 17EE903A 		vmov	r3, s15	@ int
 810 0052 9CB2     		uxth	r4, r3
 811              	.LVL49:
 812              		.loc 1 143 0
 813 0054 35D8     		bhi	.L78
 814              	.L84:
 815              		.loc 1 173 0
 816 0056 DFF8D091 		ldr	r9, .L117+28
 817 005a 99F80080 		ldrb	r8, [r9]	@ zero_extendqisi2
 818 005e B8F1000F 		cmp	r8, #0
 819 0062 1FD0     		beq	.L111
 820              		.loc 1 175 0
 821 0064 6C4F     		ldr	r7, .L117+12
 822              	.LVL50:
 823 0066 6D4E     		ldr	r6, .L117+16
 824              	.LVL51:
 825 0068 3A88     		ldrh	r2, [r7]
 826 006a 3388     		ldrh	r3, [r6]
 827 006c B3EB520F 		cmp	r3, r2, lsr #1
 828 0070 62D9     		bls	.L112
 829              	.LBB144:
 830              	.LBB145:
 831              		.loc 1 111 0
 832 0072 5A20     		movs	r0, #90
 833 0074 FFF7FEFF 		bl	turn_right
 834              	.LVL52:
 835              		.loc 1 112 0
 836 0078 0020     		movs	r0, #0
 837 007a FFF7FEFF 		bl	set_direction
 838              	.LVL53:
 839              	.LBE145:
 840              	.LBE144:
 841              		.loc 1 179 0
 842 007e 2046     		mov	r0, r4
 843 0080 FFF7FEFF 		bl	wait_after_turned
 844              	.LVL54:
 845              		.loc 1 181 0
 846 0084 664A     		ldr	r2, .L117+20
 847              	.LBB146:
 848              	.LBB147:
 849              		.loc 1 119 0
 850 0086 0023     		movs	r3, #0
 851              	.LBE147:
 852              	.LBE146:
 853              		.loc 1 181 0
 854 0088 0121     		movs	r1, #1
 855 008a 1170     		strb	r1, [r2]
ARM GAS  /var/folders/rz/lph8rwt12pb77g4kvq2dx3yc0000gn/T//ccjleQtO.s 			page 16


 856              	.LBB149:
 857              	.LBB148:
 858              		.loc 1 119 0
 859 008c 3380     		strh	r3, [r6]	@ movhi
 860              		.loc 1 120 0
 861 008e 3B80     		strh	r3, [r7]	@ movhi
 862              	.LBE148:
 863              	.LBE149:
 864              		.loc 1 183 0
 865 0090 89F80030 		strb	r3, [r9]
 866              	.LVL55:
 867              	.L77:
 868              		.loc 1 225 0
 869 0094 019A     		ldr	r2, [sp, #4]
 870 0096 2B68     		ldr	r3, [r5]
 871 0098 9A42     		cmp	r2, r3
 872 009a 40F0B580 		bne	.L109
 873 009e 03B0     		add	sp, sp, #12
 874              		.cfi_remember_state
 875              		.cfi_def_cfa_offset 36
 876              		@ sp needed
 877 00a0 BDE8F08F 		pop	{r4, r5, r6, r7, r8, r9, r10, fp, pc}
 878              	.LVL56:
 879              	.L111:
 880              		.cfi_restore_state
 881              		.loc 1 128 0
 882 00a4 BFB2     		uxth	r7, r7
 883              		.loc 1 185 0
 884 00a6 772F     		cmp	r7, #119
 885 00a8 4DD8     		bhi	.L87
 886              		.loc 1 185 0 is_stmt 0 discriminator 1
 887 00aa FA2E     		cmp	r6, #250
 888 00ac 00F29380 		bhi	.L113
 889              		.loc 1 198 0 is_stmt 1 discriminator 1
 890 00b0 F0D0     		beq	.L77
 891              		.loc 1 203 0
 892 00b2 594A     		ldr	r2, .L117+12
 893              		.loc 1 200 0
 894 00b4 5A49     		ldr	r1, .L117+20
 895              		.loc 1 203 0
 896 00b6 1388     		ldrh	r3, [r2]
 897              		.loc 1 200 0
 898 00b8 81F80080 		strb	r8, [r1]
 899              		.loc 1 203 0
 900 00bc 0133     		adds	r3, r3, #1
 901 00be 1380     		strh	r3, [r2]	@ movhi
 902 00c0 E8E7     		b	.L77
 903              	.L78:
 904              		.loc 1 144 0
 905 00c2 0020     		movs	r0, #0
 906              	.LBB150:
 907              	.LBB151:
 908              		.loc 1 28 0
 909 00c4 DFF86491 		ldr	r9, .L117+32
 910              	.LBE151:
 911              	.LBE150:
 912              		.loc 1 144 0
ARM GAS  /var/folders/rz/lph8rwt12pb77g4kvq2dx3yc0000gn/T//ccjleQtO.s 			page 17


 913 00c8 FFF7FEFF 		bl	set_leds_statue
 914              	.LVL57:
 915              		.loc 1 145 0
 916 00cc FFF7FEFF 		bl	turn_off_led
 917              	.LVL58:
 918              	.LBB153:
 919              	.LBB152:
 920              		.loc 1 28 0
 921 00d0 0123     		movs	r3, #1
 922 00d2 89F80030 		strb	r3, [r9]
 923              	.LVL59:
 924              	.LBE152:
 925              	.LBE153:
 926              		.loc 1 147 0
 927 00d6 FFF7FEFF 		bl	stop_motors
 928              	.LVL60:
 929              	.LBB154:
 930              	.LBB155:
 931              	.LBB156:
 932              	.LBB157:
 933              	.LBB158:
 934              	.LBB159:
 935              	.LBB160:
 936              		.loc 2 546 0
 937 00da 2023     		movs	r3, #32
 938              		.syntax unified
 939              	@ 546 "../../lib/e-puck2_main-processor/ChibiOS//os/ext/CMSIS/include/core_cmFunc.h" 1
 940 00dc 83F31188 		MSR basepri, r3
 941              	@ 0 "" 2
 942              	.LVL61:
 943              		.thumb
 944              		.syntax unified
 945              	.LBE160:
 946              	.LBE159:
 947              	.LBE158:
 948              	.LBE157:
 949              	.LBE156:
 950              	.LBB162:
 951              	.LBB163:
 952              		.loc 3 231 0
 953 00e0 DFF84C81 		ldr	r8, .L117+36
 954              	.LBE163:
 955              	.LBE162:
 956              	.LBB165:
 957              	.LBB161:
 958              		.loc 4 349 0
 959 00e4 FFF7FEFF 		bl	_stats_start_measure_crit_thd
 960              	.LVL62:
 961              		.loc 4 350 0
 962 00e8 FFF7FEFF 		bl	_dbg_check_lock
 963              	.LVL63:
 964              	.LBE161:
 965              	.LBE165:
 966              	.LBB166:
 967              	.LBB164:
 968              		.loc 3 231 0
 969 00ec D8F828B0 		ldr	fp, [r8, #40]
ARM GAS  /var/folders/rz/lph8rwt12pb77g4kvq2dx3yc0000gn/T//ccjleQtO.s 			page 18


 970              	.LBE164:
 971              	.LBE166:
 972              	.LBB167:
 973              	.LBB168:
 974              		.loc 4 360 0
 975 00f0 FFF7FEFF 		bl	_dbg_check_unlock
 976              	.LVL64:
 977              		.loc 4 361 0
 978 00f4 FFF7FEFF 		bl	_stats_stop_measure_crit_thd
 979              	.LVL65:
 980              		.loc 4 367 0
 981 00f8 D8F80030 		ldr	r3, [r8]
 982 00fc 4345     		cmp	r3, r8
 983 00fe 05D0     		beq	.L81
 984 0100 D8F81820 		ldr	r2, [r8, #24]
 985 0104 9B68     		ldr	r3, [r3, #8]
 986 0106 9268     		ldr	r2, [r2, #8]
 987 0108 9A42     		cmp	r2, r3
 988 010a 3ED3     		bcc	.L114
 989              	.L81:
 990              	.LVL66:
 991              	.LBB169:
 992              	.LBB170:
 993              	.LBB171:
 994              		.loc 2 546 0
 995 010c 4FF00008 		mov	r8, #0
 996              		.syntax unified
 997              	@ 546 "../../lib/e-puck2_main-processor/ChibiOS//os/ext/CMSIS/include/core_cmFunc.h" 1
 998 0110 88F31188 		MSR basepri, r8
 999              	@ 0 "" 2
 1000              	.LVL67:
 1001              		.thumb
 1002              		.syntax unified
 1003              	.LBE171:
 1004              	.LBE170:
 1005              	.LBE169:
 1006              	.LBE168:
 1007              	.LBE167:
 1008              	.LBE155:
 1009              	.LBE154:
 1010              		.loc 1 149 0
 1011 0114 0BF57A71 		add	r1, fp, #1000
 1012 0118 5846     		mov	r0, fp
 1013 011a FFF7FEFF 		bl	chThdSleepUntilWindowed
 1014              	.LVL68:
 1015              		.loc 1 151 0
 1016 011e 0120     		movs	r0, #1
 1017              	.LBB175:
 1018              	.LBB176:
 1019              		.loc 1 28 0
 1020 0120 89F80080 		strb	r8, [r9]
 1021              	.LVL69:
 1022              	.LBE176:
 1023              	.LBE175:
 1024              		.loc 1 151 0
 1025 0124 FFF7FEFF 		bl	set_leds_statue
 1026              	.LVL70:
ARM GAS  /var/folders/rz/lph8rwt12pb77g4kvq2dx3yc0000gn/T//ccjleQtO.s 			page 19


 1027              		.loc 1 153 0
 1028 0128 FFF7FEFF 		bl	get_see_white
 1029              	.LVL71:
 1030 012c B8B9     		cbnz	r0, .L115
 1031              		.loc 1 159 0
 1032 012e FFF7FEFF 		bl	get_see_red
 1033              	.LVL72:
 1034 0132 0028     		cmp	r0, #0
 1035 0134 8FD0     		beq	.L84
 1036 0136 ADE7     		b	.L77
 1037              	.LVL73:
 1038              	.L112:
 1039              	.LBB177:
 1040              	.LBB178:
 1041              		.loc 1 102 0
 1042 0138 0120     		movs	r0, #1
 1043 013a FFF7FEFF 		bl	set_direction
 1044              	.LVL74:
 1045              		.loc 1 103 0
 1046 013e 3388     		ldrh	r3, [r6]
 1047 0140 0133     		adds	r3, r3, #1
 1048 0142 3380     		strh	r3, [r6]	@ movhi
 1049 0144 A6E7     		b	.L77
 1050              	.LVL75:
 1051              	.L87:
 1052              	.LBE178:
 1053              	.LBE177:
 1054              		.loc 1 204 0
 1055 0146 782F     		cmp	r7, #120
 1056 0148 A4D0     		beq	.L77
 1057              		.loc 1 204 0 is_stmt 0 discriminator 1
 1058 014a F92E     		cmp	r6, #249
 1059 014c 21D8     		bhi	.L90
 1060              		.loc 1 205 0 is_stmt 1
 1061 014e 324B     		ldr	r3, .L117+12
 1062 0150 1B88     		ldrh	r3, [r3]
 1063 0152 142B     		cmp	r3, #20
 1064 0154 9ED9     		bls	.L77
 1065              		.loc 1 206 0
 1066 0156 0123     		movs	r3, #1
 1067 0158 89F80030 		strb	r3, [r9]
 1068 015c 9AE7     		b	.L77
 1069              	.L115:
 1070              	.LBB179:
 1071              	.LBB180:
 1072              		.loc 1 119 0
 1073 015e 2F4A     		ldr	r2, .L117+16
 1074              		.loc 1 120 0
 1075 0160 2D4B     		ldr	r3, .L117+12
 1076              		.loc 1 119 0
 1077 0162 A2F80080 		strh	r8, [r2]	@ movhi
 1078              	.LBE180:
 1079              	.LBE179:
 1080              		.loc 1 155 0
 1081 0166 B420     		movs	r0, #180
 1082              	.LBB182:
 1083              	.LBB181:
ARM GAS  /var/folders/rz/lph8rwt12pb77g4kvq2dx3yc0000gn/T//ccjleQtO.s 			page 20


 1084              		.loc 1 120 0
 1085 0168 A3F80080 		strh	r8, [r3]	@ movhi
 1086              	.LBE181:
 1087              	.LBE182:
 1088              		.loc 1 155 0
 1089 016c FFF7FEFF 		bl	turn_right
 1090              	.LVL76:
 1091              		.loc 1 156 0
 1092 0170 4046     		mov	r0, r8
 1093 0172 FFF7FEFF 		bl	set_direction
 1094              	.LVL77:
 1095              		.loc 1 157 0
 1096 0176 019A     		ldr	r2, [sp, #4]
 1097 0178 2B68     		ldr	r3, [r5]
 1098 017a 9A42     		cmp	r2, r3
 1099 017c 44D1     		bne	.L109
 1100 017e 4046     		mov	r0, r8
 1101              		.loc 1 225 0
 1102 0180 03B0     		add	sp, sp, #12
 1103              		.cfi_remember_state
 1104              		.cfi_def_cfa_offset 36
 1105              		@ sp needed
 1106 0182 BDE8F04F 		pop	{r4, r5, r6, r7, r8, r9, r10, fp, lr}
 1107              		.cfi_restore 14
 1108              		.cfi_restore 11
 1109              		.cfi_restore 10
 1110              		.cfi_restore 9
 1111              		.cfi_restore 8
 1112              		.cfi_restore 7
 1113              		.cfi_restore 6
 1114              		.cfi_restore 5
 1115              		.cfi_restore 4
 1116              		.cfi_def_cfa_offset 0
 1117              	.LVL78:
 1118              		.loc 1 157 0
 1119 0186 FFF7FEBF 		b	set_see_white
 1120              	.LVL79:
 1121              	.L114:
 1122              		.cfi_restore_state
 1123              	.LBB183:
 1124              	.LBB174:
 1125              	.LBB173:
 1126              	.LBB172:
 1127              		.loc 4 367 0
 1128 018a 2648     		ldr	r0, .L117+24
 1129 018c FFF7FEFF 		bl	chSysHalt
 1130              	.LVL80:
 1131 0190 BCE7     		b	.L81
 1132              	.L90:
 1133              	.LBE172:
 1134              	.LBE173:
 1135              	.LBE174:
 1136              	.LBE183:
 1137              		.loc 1 208 0 discriminator 1
 1138 0192 FA2E     		cmp	r6, #250
 1139 0194 3FF47EAF 		beq	.L77
 1140              		.loc 1 130 0 discriminator 2
ARM GAS  /var/folders/rz/lph8rwt12pb77g4kvq2dx3yc0000gn/T//ccjleQtO.s 			page 21


 1141 0198 1FFA8AFA 		uxth	r10, r10
 1142              		.loc 1 208 0 discriminator 2
 1143 019c BAF1590F 		cmp	r10, #89
 1144 01a0 2CD9     		bls	.L116
 1145              		.loc 1 216 0 discriminator 2
 1146 01a2 BAF15A0F 		cmp	r10, #90
 1147 01a6 3FF475AF 		beq	.L77
 1148              	.LBB184:
 1149              	.LBB185:
 1150              		.loc 1 119 0
 1151 01aa 1C4A     		ldr	r2, .L117+16
 1152              		.loc 1 120 0
 1153 01ac 1A4B     		ldr	r3, .L117+12
 1154              		.loc 1 119 0
 1155 01ae A2F80080 		strh	r8, [r2]	@ movhi
 1156              	.LBE185:
 1157              	.LBE184:
 1158              		.loc 1 220 0
 1159 01b2 B420     		movs	r0, #180
 1160              	.L110:
 1161              	.LBB187:
 1162              	.LBB186:
 1163              		.loc 1 120 0
 1164 01b4 A3F80080 		strh	r8, [r3]	@ movhi
 1165              	.LBE186:
 1166              	.LBE187:
 1167              		.loc 1 220 0
 1168 01b8 FFF7FEFF 		bl	turn_left
 1169              	.LVL81:
 1170              		.loc 1 221 0
 1171 01bc 4046     		mov	r0, r8
 1172 01be FFF7FEFF 		bl	set_direction
 1173              	.LVL82:
 1174              		.loc 1 223 0
 1175 01c2 019A     		ldr	r2, [sp, #4]
 1176 01c4 2B68     		ldr	r3, [r5]
 1177 01c6 9A42     		cmp	r2, r3
 1178 01c8 1ED1     		bne	.L109
 1179 01ca 2046     		mov	r0, r4
 1180              		.loc 1 225 0
 1181 01cc 03B0     		add	sp, sp, #12
 1182              		.cfi_remember_state
 1183              		.cfi_def_cfa_offset 36
 1184              		@ sp needed
 1185 01ce BDE8F04F 		pop	{r4, r5, r6, r7, r8, r9, r10, fp, lr}
 1186              		.cfi_restore 14
 1187              		.cfi_restore 11
 1188              		.cfi_restore 10
 1189              		.cfi_restore 9
 1190              		.cfi_restore 8
 1191              		.cfi_restore 7
 1192              		.cfi_restore 6
 1193              		.cfi_restore 5
 1194              		.cfi_restore 4
 1195              		.cfi_def_cfa_offset 0
 1196              	.LVL83:
 1197              		.loc 1 223 0
ARM GAS  /var/folders/rz/lph8rwt12pb77g4kvq2dx3yc0000gn/T//ccjleQtO.s 			page 22


 1198 01d2 FFF7FEBF 		b	wait_after_turned
 1199              	.LVL84:
 1200              	.L113:
 1201              		.cfi_restore_state
 1202              	.LBB188:
 1203              	.LBB189:
 1204              		.loc 1 119 0
 1205 01d6 114A     		ldr	r2, .L117+16
 1206              		.loc 1 120 0
 1207 01d8 0F4B     		ldr	r3, .L117+12
 1208              		.loc 1 119 0
 1209 01da A2F80080 		strh	r8, [r2]	@ movhi
 1210              	.LBE189:
 1211              	.LBE188:
 1212              		.loc 1 189 0
 1213 01de 5A20     		movs	r0, #90
 1214              	.LBB191:
 1215              	.LBB190:
 1216              		.loc 1 120 0
 1217 01e0 A3F80080 		strh	r8, [r3]	@ movhi
 1218              	.LBE190:
 1219              	.LBE191:
 1220              		.loc 1 189 0
 1221 01e4 FFF7FEFF 		bl	turn_right
 1222              	.LVL85:
 1223              		.loc 1 190 0
 1224 01e8 4046     		mov	r0, r8
 1225 01ea FFF7FEFF 		bl	set_direction
 1226              	.LVL86:
 1227              		.loc 1 192 0
 1228 01ee 2046     		mov	r0, r4
 1229 01f0 FFF7FEFF 		bl	wait_after_turned
 1230              	.LVL87:
 1231              		.loc 1 197 0
 1232 01f4 0A4B     		ldr	r3, .L117+20
 1233 01f6 0122     		movs	r2, #1
 1234 01f8 1A70     		strb	r2, [r3]
 1235 01fa 4BE7     		b	.L77
 1236              	.L116:
 1237              	.LBB192:
 1238              	.LBB193:
 1239              		.loc 1 119 0
 1240 01fc 074A     		ldr	r2, .L117+16
 1241              		.loc 1 120 0
 1242 01fe 064B     		ldr	r3, .L117+12
 1243              		.loc 1 119 0
 1244 0200 A2F80080 		strh	r8, [r2]	@ movhi
 1245              	.LBE193:
 1246              	.LBE192:
 1247              		.loc 1 212 0
 1248 0204 5A20     		movs	r0, #90
 1249 0206 D5E7     		b	.L110
 1250              	.LVL88:
 1251              	.L109:
 1252              		.loc 1 225 0
 1253 0208 FFF7FEFF 		bl	__stack_chk_fail
 1254              	.LVL89:
ARM GAS  /var/folders/rz/lph8rwt12pb77g4kvq2dx3yc0000gn/T//ccjleQtO.s 			page 23


 1255              	.L118:
 1256              		.align	2
 1257              	.L117:
 1258 020c 00000000 		.word	__stack_chk_guard
 1259 0210 00007A44 		.word	1148846080
 1260 0214 0048A345 		.word	1168328704
 1261 0218 00000000 		.word	.LANCHOR5
 1262 021c 00000000 		.word	.LANCHOR4
 1263 0220 00000000 		.word	.LANCHOR3
 1264 0224 00000000 		.word	.LANCHOR2
 1265 0228 00000000 		.word	.LANCHOR6
 1266 022c 00000000 		.word	.LANCHOR0
 1267 0230 00000000 		.word	ch
 1268              		.cfi_endproc
 1269              	.LFE265:
 1270              		.size	check_for_path, .-check_for_path
 1271              		.section	.text.determine_pi_frequency,"ax",%progbits
 1272              		.align	1
 1273              		.p2align 4,,15
 1274              		.global	determine_pi_frequency
 1275              		.syntax unified
 1276              		.thumb
 1277              		.thumb_func
 1278              		.fpu fpv4-sp-d16
 1279              		.type	determine_pi_frequency, %function
 1280              	determine_pi_frequency:
 1281              	.LFB266:
 1282              		.loc 1 230 0
 1283              		.cfi_startproc
 1284              		@ args = 0, pretend = 0, frame = 8
 1285              		@ frame_needed = 0, uses_anonymous_args = 0
 1286 0000 10B5     		push	{r4, lr}
 1287              		.cfi_def_cfa_offset 8
 1288              		.cfi_offset 4, -8
 1289              		.cfi_offset 14, -4
 1290 0002 1A4C     		ldr	r4, .L137
 1291 0004 82B0     		sub	sp, sp, #8
 1292              		.cfi_def_cfa_offset 16
 1293              		.loc 1 230 0
 1294 0006 2368     		ldr	r3, [r4]
 1295 0008 0193     		str	r3, [sp, #4]
 1296              		.loc 1 231 0
 1297 000a FFF7FEFF 		bl	get_toggle_period_rgb_led
 1298              	.LVL90:
 1299 000e B0F57A7F 		cmp	r0, #1000
 1300 0012 1FD0     		beq	.L121
 1301 0014 B0F5FA6F 		cmp	r0, #2000
 1302 0018 12D0     		beq	.L122
 1303 001a B0F5FA7F 		cmp	r0, #500
 1304 001e 05D0     		beq	.L135
 1305              	.L119:
 1306              		.loc 1 255 0
 1307 0020 019A     		ldr	r2, [sp, #4]
 1308 0022 2368     		ldr	r3, [r4]
 1309 0024 9A42     		cmp	r2, r3
 1310 0026 1FD1     		bne	.L136
 1311 0028 02B0     		add	sp, sp, #8
ARM GAS  /var/folders/rz/lph8rwt12pb77g4kvq2dx3yc0000gn/T//ccjleQtO.s 			page 24


 1312              		.cfi_remember_state
 1313              		.cfi_def_cfa_offset 8
 1314              		@ sp needed
 1315 002a 10BD     		pop	{r4, pc}
 1316              	.L135:
 1317              		.cfi_restore_state
 1318              	.LBB196:
 1319              		.loc 1 242 0
 1320 002c 104B     		ldr	r3, .L137+4
 1321 002e 1A78     		ldrb	r2, [r3]	@ zero_extendqisi2
 1322 0030 042A     		cmp	r2, #4
 1323 0032 F5D0     		beq	.L119
 1324              		.loc 1 243 0
 1325 0034 0F49     		ldr	r1, .L137+8
 1326 0036 0020     		movs	r0, #0
 1327              		.loc 1 244 0
 1328 0038 0422     		movs	r2, #4
 1329              		.loc 1 243 0
 1330 003a 0870     		strb	r0, [r1]
 1331              		.loc 1 244 0
 1332 003c 1A70     		strb	r2, [r3]
 1333 003e EFE7     		b	.L119
 1334              	.L122:
 1335              	.LBE196:
 1336              		.loc 1 249 0
 1337 0040 0B4B     		ldr	r3, .L137+4
 1338 0042 1A78     		ldrb	r2, [r3]	@ zero_extendqisi2
 1339 0044 142A     		cmp	r2, #20
 1340 0046 EBD0     		beq	.L119
 1341              		.loc 1 250 0
 1342 0048 0A49     		ldr	r1, .L137+8
 1343 004a 0020     		movs	r0, #0
 1344              		.loc 1 251 0
 1345 004c 1422     		movs	r2, #20
 1346              		.loc 1 250 0
 1347 004e 0870     		strb	r0, [r1]
 1348              		.loc 1 251 0
 1349 0050 1A70     		strb	r2, [r3]
 1350              		.loc 1 255 0
 1351 0052 E5E7     		b	.L119
 1352              	.L121:
 1353              		.loc 1 235 0
 1354 0054 064B     		ldr	r3, .L137+4
 1355 0056 1A78     		ldrb	r2, [r3]	@ zero_extendqisi2
 1356 0058 0A2A     		cmp	r2, #10
 1357 005a E1D0     		beq	.L119
 1358              		.loc 1 236 0
 1359 005c 0549     		ldr	r1, .L137+8
 1360 005e 0020     		movs	r0, #0
 1361              		.loc 1 237 0
 1362 0060 0A22     		movs	r2, #10
 1363              		.loc 1 236 0
 1364 0062 0870     		strb	r0, [r1]
 1365              		.loc 1 237 0
 1366 0064 1A70     		strb	r2, [r3]
 1367 0066 DBE7     		b	.L119
 1368              	.L136:
ARM GAS  /var/folders/rz/lph8rwt12pb77g4kvq2dx3yc0000gn/T//ccjleQtO.s 			page 25


 1369              		.loc 1 255 0
 1370 0068 FFF7FEFF 		bl	__stack_chk_fail
 1371              	.LVL91:
 1372              	.L138:
 1373              		.align	2
 1374              	.L137:
 1375 006c 00000000 		.word	__stack_chk_guard
 1376 0070 00000000 		.word	.LANCHOR7
 1377 0074 00000000 		.word	.LANCHOR8
 1378              		.cfi_endproc
 1379              	.LFE266:
 1380              		.size	determine_pi_frequency, .-determine_pi_frequency
 1381              		.section	.text.FindPathToExit,"ax",%progbits
 1382              		.align	1
 1383              		.p2align 4,,15
 1384              		.syntax unified
 1385              		.thumb
 1386              		.thumb_func
 1387              		.fpu fpv4-sp-d16
 1388              		.type	FindPathToExit, %function
 1389              	FindPathToExit:
 1390              	.LFB267:
 1391              		.loc 1 258 0
 1392              		.cfi_startproc
 1393              		@ args = 0, pretend = 0, frame = 8
 1394              		@ frame_needed = 0, uses_anonymous_args = 0
 1395              	.LVL92:
 1396 0000 2DE9F04F 		push	{r4, r5, r6, r7, r8, r9, r10, fp, lr}
 1397              		.cfi_def_cfa_offset 36
 1398              		.cfi_offset 4, -36
 1399              		.cfi_offset 5, -32
 1400              		.cfi_offset 6, -28
 1401              		.cfi_offset 7, -24
 1402              		.cfi_offset 8, -20
 1403              		.cfi_offset 9, -16
 1404              		.cfi_offset 10, -12
 1405              		.cfi_offset 11, -8
 1406              		.cfi_offset 14, -4
 1407              	.LBB213:
 1408              	.LBB214:
 1409              		.file 5 "../../lib/e-puck2_main-processor/ChibiOS//os/rt/include/chregistry.h"
 1410              		.loc 5 135 0
 1411 0004 274C     		ldr	r4, .L152
 1412              	.LBE214:
 1413              	.LBE213:
 1414              		.loc 1 258 0
 1415 0006 284B     		ldr	r3, .L152+4
 1416              	.LBB217:
 1417              	.LBB215:
 1418              		.loc 5 135 0
 1419 0008 A269     		ldr	r2, [r4, #24]
 1420 000a 2849     		ldr	r1, .L152+8
 1421              	.LBE215:
 1422              	.LBE217:
 1423              		.loc 1 258 0
 1424 000c 1B68     		ldr	r3, [r3]
 1425 000e DFF8A8B0 		ldr	fp, .L152+20
ARM GAS  /var/folders/rz/lph8rwt12pb77g4kvq2dx3yc0000gn/T//ccjleQtO.s 			page 26


 1426 0012 274D     		ldr	r5, .L152+12
 1427 0014 274F     		ldr	r7, .L152+16
 1428              	.LBB218:
 1429              	.LBB219:
 1430              	.LBB220:
 1431              	.LBB221:
 1432              		.loc 4 367 0
 1433 0016 DFF8A4A0 		ldr	r10, .L152+24
 1434              	.LBE221:
 1435              	.LBE220:
 1436              	.LBE219:
 1437              	.LBE218:
 1438              	.LBB246:
 1439              	.LBB216:
 1440              		.loc 5 135 0
 1441 001a 9161     		str	r1, [r2, #24]
 1442              	.LBE216:
 1443              	.LBE246:
 1444              		.loc 1 258 0
 1445 001c 83B0     		sub	sp, sp, #12
 1446              		.cfi_def_cfa_offset 48
 1447              	.LBB247:
 1448              	.LBB244:
 1449              	.LBB230:
 1450              	.LBB231:
 1451              	.LBB232:
 1452              	.LBB233:
 1453              	.LBB234:
 1454              		.loc 2 546 0
 1455 001e 4FF02009 		mov	r9, #32
 1456              	.LBE234:
 1457              	.LBE233:
 1458              	.LBE232:
 1459              	.LBE231:
 1460              	.LBE230:
 1461              	.LBE244:
 1462              	.LBE247:
 1463              		.loc 1 258 0
 1464 0022 0193     		str	r3, [sp, #4]
 1465              	.LVL93:
 1466              	.LBB248:
 1467              	.LBB245:
 1468              	.LBB239:
 1469              	.LBB228:
 1470              	.LBB222:
 1471              	.LBB223:
 1472              	.LBB224:
 1473              		.loc 2 546 0
 1474 0024 0026     		movs	r6, #0
 1475 0026 32E0     		b	.L146
 1476              	.LVL94:
 1477              	.L140:
 1478              	.LBE224:
 1479              	.LBE223:
 1480              	.LBE222:
 1481              	.LBE228:
 1482              	.LBE239:
ARM GAS  /var/folders/rz/lph8rwt12pb77g4kvq2dx3yc0000gn/T//ccjleQtO.s 			page 27


 1483              	.LBB240:
 1484              	.LBB238:
 1485              	.LBB237:
 1486              	.LBB236:
 1487              	.LBB235:
 1488              		.syntax unified
 1489              	@ 546 "../../lib/e-puck2_main-processor/ChibiOS//os/ext/CMSIS/include/core_cmFunc.h" 1
 1490 0028 89F31188 		MSR basepri, r9
 1491              	@ 0 "" 2
 1492              	.LVL95:
 1493              		.thumb
 1494              		.syntax unified
 1495              	.LBE235:
 1496              	.LBE236:
 1497              	.LBE237:
 1498              		.loc 4 349 0
 1499 002c FFF7FEFF 		bl	_stats_start_measure_crit_thd
 1500              	.LVL96:
 1501              		.loc 4 350 0
 1502 0030 FFF7FEFF 		bl	_dbg_check_lock
 1503              	.LVL97:
 1504              	.LBE238:
 1505              	.LBE240:
 1506              	.LBB241:
 1507              	.LBB242:
 1508              		.loc 3 231 0
 1509 0034 D4F82880 		ldr	r8, [r4, #40]
 1510              	.LBE242:
 1511              	.LBE241:
 1512              	.LBB243:
 1513              	.LBB229:
 1514              		.loc 4 360 0
 1515 0038 FFF7FEFF 		bl	_dbg_check_unlock
 1516              	.LVL98:
 1517              		.loc 4 361 0
 1518 003c FFF7FEFF 		bl	_stats_stop_measure_crit_thd
 1519              	.LVL99:
 1520              		.loc 4 367 0
 1521 0040 2368     		ldr	r3, [r4]
 1522 0042 A342     		cmp	r3, r4
 1523 0044 07D0     		beq	.L142
 1524 0046 A269     		ldr	r2, [r4, #24]
 1525 0048 9B68     		ldr	r3, [r3, #8]
 1526 004a 9268     		ldr	r2, [r2, #8]
 1527 004c 9A42     		cmp	r2, r3
 1528 004e 02D2     		bcs	.L142
 1529 0050 5046     		mov	r0, r10
 1530 0052 FFF7FEFF 		bl	chSysHalt
 1531              	.LVL100:
 1532              	.L142:
 1533              	.LBB227:
 1534              	.LBB226:
 1535              	.LBB225:
 1536              		.loc 2 546 0
 1537              		.syntax unified
 1538              	@ 546 "../../lib/e-puck2_main-processor/ChibiOS//os/ext/CMSIS/include/core_cmFunc.h" 1
 1539 0056 86F31188 		MSR basepri, r6
ARM GAS  /var/folders/rz/lph8rwt12pb77g4kvq2dx3yc0000gn/T//ccjleQtO.s 			page 28


 1540              	@ 0 "" 2
 1541              	.LVL101:
 1542              		.thumb
 1543              		.syntax unified
 1544              	.LBE225:
 1545              	.LBE226:
 1546              	.LBE227:
 1547              	.LBE229:
 1548              	.LBE243:
 1549              	.LBE245:
 1550              	.LBE248:
 1551              		.loc 1 277 0
 1552 005a FFF7FEFF 		bl	check_for_path
 1553              	.LVL102:
 1554              		.loc 1 280 0
 1555 005e 9BF80030 		ldrb	r3, [fp]	@ zero_extendqisi2
 1556 0062 2BB1     		cbz	r3, .L143
 1557              		.loc 1 280 0 is_stmt 0 discriminator 1
 1558 0064 2A78     		ldrb	r2, [r5]	@ zero_extendqisi2
 1559 0066 3B78     		ldrb	r3, [r7]	@ zero_extendqisi2
 1560 0068 9A42     		cmp	r2, r3
 1561 006a 01D1     		bne	.L143
 1562              		.loc 1 281 0 is_stmt 1
 1563 006c FFF7FEFF 		bl	process_pi_regulator
 1564              	.LVL103:
 1565              	.L143:
 1566              		.loc 1 284 0
 1567 0070 FFF7FEFF 		bl	determine_pi_frequency
 1568              	.LVL104:
 1569              		.loc 1 286 0
 1570 0074 2B78     		ldrb	r3, [r5]	@ zero_extendqisi2
 1571 0076 3A78     		ldrb	r2, [r7]	@ zero_extendqisi2
 1572 0078 9A42     		cmp	r2, r3
 1573              		.loc 1 289 0
 1574 007a 18BF     		it	ne
 1575 007c 0133     		addne	r3, r3, #1
 1576              		.loc 1 293 0
 1577 007e 08F13201 		add	r1, r8, #50
 1578 0082 4046     		mov	r0, r8
 1579              		.loc 1 287 0
 1580 0084 0CBF     		ite	eq
 1581 0086 2E70     		strbeq	r6, [r5]
 1582              		.loc 1 289 0
 1583 0088 2B70     		strbne	r3, [r5]
 1584              		.loc 1 293 0
 1585 008a FFF7FEFF 		bl	chThdSleepUntilWindowed
 1586              	.LVL105:
 1587              	.L146:
 1588              		.loc 1 268 0
 1589 008e FFF7FEFF 		bl	get_see_red
 1590              	.LVL106:
 1591 0092 0028     		cmp	r0, #0
 1592 0094 C8D0     		beq	.L140
 1593              	.L141:
 1594              		.loc 1 270 0 discriminator 1
 1595 0096 3220     		movs	r0, #50
 1596 0098 FFF7FEFF 		bl	chThdSleep
ARM GAS  /var/folders/rz/lph8rwt12pb77g4kvq2dx3yc0000gn/T//ccjleQtO.s 			page 29


 1597              	.LVL107:
 1598 009c 3220     		movs	r0, #50
 1599 009e FFF7FEFF 		bl	chThdSleep
 1600              	.LVL108:
 1601 00a2 F8E7     		b	.L141
 1602              	.L153:
 1603              		.align	2
 1604              	.L152:
 1605 00a4 00000000 		.word	ch
 1606 00a8 00000000 		.word	__stack_chk_guard
 1607 00ac 00000000 		.word	.LANCHOR9
 1608 00b0 00000000 		.word	.LANCHOR8
 1609 00b4 00000000 		.word	.LANCHOR7
 1610 00b8 00000000 		.word	.LANCHOR3
 1611 00bc 00000000 		.word	.LANCHOR2
 1612              		.cfi_endproc
 1613              	.LFE267:
 1614              		.size	FindPathToExit, .-FindPathToExit
 1615              		.section	.text.find_path_to_exit_start,"ax",%progbits
 1616              		.align	1
 1617              		.p2align 4,,15
 1618              		.global	find_path_to_exit_start
 1619              		.syntax unified
 1620              		.thumb
 1621              		.thumb_func
 1622              		.fpu fpv4-sp-d16
 1623              		.type	find_path_to_exit_start, %function
 1624              	find_path_to_exit_start:
 1625              	.LFB268:
 1626              		.loc 1 297 0
 1627              		.cfi_startproc
 1628              		@ args = 0, pretend = 0, frame = 8
 1629              		@ frame_needed = 0, uses_anonymous_args = 0
 1630 0000 10B5     		push	{r4, lr}
 1631              		.cfi_def_cfa_offset 8
 1632              		.cfi_offset 4, -8
 1633              		.cfi_offset 14, -4
 1634 0002 0A4C     		ldr	r4, .L158
 1635              		.loc 1 298 0
 1636 0004 0A4B     		ldr	r3, .L158+4
 1637              		.loc 1 297 0
 1638 0006 2268     		ldr	r2, [r4]
 1639              		.loc 1 298 0
 1640 0008 0A48     		ldr	r0, .L158+8
 1641              		.loc 1 297 0
 1642 000a 84B0     		sub	sp, sp, #16
 1643              		.cfi_def_cfa_offset 24
 1644              		.loc 1 298 0
 1645 000c 4FF4AF61 		mov	r1, #1400
 1646              		.loc 1 297 0
 1647 0010 0392     		str	r2, [sp, #12]
 1648              		.loc 1 298 0
 1649 0012 0022     		movs	r2, #0
 1650 0014 0092     		str	r2, [sp]
 1651 0016 4022     		movs	r2, #64
 1652 0018 FFF7FEFF 		bl	chThdCreateStatic
 1653              	.LVL109:
ARM GAS  /var/folders/rz/lph8rwt12pb77g4kvq2dx3yc0000gn/T//ccjleQtO.s 			page 30


 1654              		.loc 1 299 0
 1655 001c 039A     		ldr	r2, [sp, #12]
 1656 001e 2368     		ldr	r3, [r4]
 1657 0020 9A42     		cmp	r2, r3
 1658 0022 01D1     		bne	.L157
 1659 0024 04B0     		add	sp, sp, #16
 1660              		.cfi_remember_state
 1661              		.cfi_def_cfa_offset 8
 1662              		@ sp needed
 1663 0026 10BD     		pop	{r4, pc}
 1664              	.L157:
 1665              		.cfi_restore_state
 1666 0028 FFF7FEFF 		bl	__stack_chk_fail
 1667              	.LVL110:
 1668              	.L159:
 1669              		.align	2
 1670              	.L158:
 1671 002c 00000000 		.word	__stack_chk_guard
 1672 0030 00000000 		.word	FindPathToExit
 1673 0034 00000000 		.word	.LANCHOR10
 1674              		.cfi_endproc
 1675              	.LFE268:
 1676              		.size	find_path_to_exit_start, .-find_path_to_exit_start
 1677              		.section	.bss.counter_pi_frequence,"aw",%nobits
 1678              		.set	.LANCHOR8,. + 0
 1679              		.type	counter_pi_frequence, %object
 1680              		.size	counter_pi_frequence, 1
 1681              	counter_pi_frequence:
 1682 0000 00       		.space	1
 1683              		.section	.bss.distance_corrected_backward,"aw",%nobits
 1684              		.align	1
 1685              		.set	.LANCHOR4,. + 0
 1686              		.type	distance_corrected_backward, %object
 1687              		.size	distance_corrected_backward, 2
 1688              	distance_corrected_backward:
 1689 0000 0000     		.space	2
 1690              		.section	.bss.front_wall,"aw",%nobits
 1691              		.set	.LANCHOR0,. + 0
 1692              		.type	front_wall, %object
 1693              		.size	front_wall, 1
 1694              	front_wall:
 1695 0000 00       		.space	1
 1696              		.section	.bss.go_backward,"aw",%nobits
 1697              		.set	.LANCHOR6,. + 0
 1698              		.type	go_backward, %object
 1699              		.size	go_backward, 1
 1700              	go_backward:
 1701 0000 00       		.space	1
 1702              		.section	.bss.right_path_thickness,"aw",%nobits
 1703              		.align	1
 1704              		.set	.LANCHOR5,. + 0
 1705              		.type	right_path_thickness, %object
 1706              		.size	right_path_thickness, 2
 1707              	right_path_thickness:
 1708 0000 0000     		.space	2
 1709              		.section	.bss.sum_error.11399,"aw",%nobits
 1710              		.align	1
ARM GAS  /var/folders/rz/lph8rwt12pb77g4kvq2dx3yc0000gn/T//ccjleQtO.s 			page 31


 1711              		.set	.LANCHOR1,. + 0
 1712              		.type	sum_error.11399, %object
 1713              		.size	sum_error.11399, 2
 1714              	sum_error.11399:
 1715 0000 0000     		.space	2
 1716              		.section	.bss.waFindPathToExit,"aw",%nobits
 1717              		.align	3
 1718              		.set	.LANCHOR10,. + 0
 1719              		.type	waFindPathToExit, %object
 1720              		.size	waFindPathToExit, 1400
 1721              	waFindPathToExit:
 1722 0000 00000000 		.space	1400
 1722      00000000 
 1722      00000000 
 1722      00000000 
 1722      00000000 
 1723              		.section	.data.counter_pi_frequence_to_reach,"aw",%progbits
 1724              		.set	.LANCHOR7,. + 0
 1725              		.type	counter_pi_frequence_to_reach, %object
 1726              		.size	counter_pi_frequence_to_reach, 1
 1727              	counter_pi_frequence_to_reach:
 1728 0000 01       		.byte	1
 1729              		.section	.data.pi_regulator_is_on,"aw",%progbits
 1730              		.set	.LANCHOR3,. + 0
 1731              		.type	pi_regulator_is_on, %object
 1732              		.size	pi_regulator_is_on, 1
 1733              	pi_regulator_is_on:
 1734 0000 01       		.byte	1
 1735              		.section	.rodata.__FUNCTION__.11434,"a",%progbits
 1736              		.align	2
 1737              		.set	.LANCHOR9,. + 0
 1738              		.type	__FUNCTION__.11434, %object
 1739              		.size	__FUNCTION__.11434, 15
 1740              	__FUNCTION__.11434:
 1741 0000 46696E64 		.ascii	"FindPathToExit\000"
 1741      50617468 
 1741      546F4578 
 1741      697400
 1742              		.section	.rodata.__func__.7697,"a",%progbits
 1743              		.align	2
 1744              		.set	.LANCHOR2,. + 0
 1745              		.type	__func__.7697, %object
 1746              		.size	__func__.7697, 12
 1747              	__func__.7697:
 1748 0000 63685379 		.ascii	"chSysUnlock\000"
 1748      73556E6C 
 1748      6F636B00 
 1749              		.text
 1750              	.Letext0:
 1751              		.file 6 "/Applications/Eclipse_e-puck2.app/Contents/Eclipse_e-puck2/Tools/gcc-arm-none-eabi-7-2017
 1752              		.file 7 "/Applications/Eclipse_e-puck2.app/Contents/Eclipse_e-puck2/Tools/gcc-arm-none-eabi-7-2017
 1753              		.file 8 "/Applications/Eclipse_e-puck2.app/Contents/Eclipse_e-puck2/Tools/gcc-arm-none-eabi-7-2017
 1754              		.file 9 "/Applications/Eclipse_e-puck2.app/Contents/Eclipse_e-puck2/Tools/gcc-arm-none-eabi-7-2017
 1755              		.file 10 "/Applications/Eclipse_e-puck2.app/Contents/Eclipse_e-puck2/Tools/gcc-arm-none-eabi-7-201
 1756              		.file 11 "/Applications/Eclipse_e-puck2.app/Contents/Eclipse_e-puck2/Tools/gcc-arm-none-eabi-7-201
 1757              		.file 12 "../../lib/e-puck2_main-processor/src/msgbus/messagebus.h"
 1758              		.file 13 "../../lib/e-puck2_main-processor/ChibiOS//os/rt/ports/ARMCMx/compilers/GCC/chtypes.h"
ARM GAS  /var/folders/rz/lph8rwt12pb77g4kvq2dx3yc0000gn/T//ccjleQtO.s 			page 32


 1759              		.file 14 "../../lib/e-puck2_main-processor/ChibiOS//os/rt/include/chsystypes.h"
 1760              		.file 15 "../../lib/e-puck2_main-processor/ChibiOS//os/rt/include/chschd.h"
 1761              		.file 16 "../../lib/e-puck2_main-processor/ChibiOS//os/ext/CMSIS/include/core_cm4.h"
 1762              		.file 17 "../../lib/e-puck2_main-processor/ChibiOS//os/ext/CMSIS/ST/system_stm32f4xx.h"
 1763              		.file 18 "../../lib/e-puck2_main-processor/ChibiOS//os/ext/CMSIS/ST/stm32f407xx.h"
 1764              		.file 19 "../../lib/e-puck2_main-processor/ChibiOS//os/rt/ports/ARMCMx/chcore.h"
 1765              		.file 20 "../../lib/e-puck2_main-processor/ChibiOS//os/rt/ports/ARMCMx/chcore_v7m.h"
 1766              		.file 21 "../../lib/e-puck2_main-processor/ChibiOS//os/rt/include/chdebug.h"
 1767              		.file 22 "../../lib/e-puck2_main-processor/ChibiOS//os/rt/include/chtm.h"
 1768              		.file 23 "../../lib/e-puck2_main-processor/ChibiOS//os/rt/include/chstats.h"
 1769              		.file 24 "../../lib/e-puck2_main-processor/ChibiOS//os/rt/include/chsem.h"
 1770              		.file 25 "../../lib/e-puck2_main-processor/ChibiOS//os/rt/include/chmtx.h"
 1771              		.file 26 "../../lib/e-puck2_main-processor/ChibiOS//os/rt/include/chevents.h"
 1772              		.file 27 "../../lib/e-puck2_main-processor/ChibiOS//os/rt/include/chqueues.h"
 1773              		.file 28 "../../lib/e-puck2_main-processor/ChibiOS//os/hal/ports/STM32/STM32F4xx/stm32_dma.h"
 1774              		.file 29 "../../lib/e-puck2_main-processor/ChibiOS//os/hal/include/hal_ioblock.h"
 1775              		.file 30 "../../lib/e-puck2_main-processor/ChibiOS//os/hal/ports/STM32/LLD/GPIOv2/pal_lld.h"
 1776              		.file 31 "../../lib/e-puck2_main-processor/ChibiOS//os/hal/include/adc.h"
 1777              		.file 32 "../../lib/e-puck2_main-processor/ChibiOS//os/hal/ports/STM32/STM32F4xx/adc_lld.h"
 1778              		.file 33 "../../lib/e-puck2_main-processor/ChibiOS//os/hal/include/can.h"
 1779              		.file 34 "../../lib/e-puck2_main-processor/ChibiOS//os/hal/ports/STM32/LLD/can_lld.h"
 1780              		.file 35 "../../lib/e-puck2_main-processor/ChibiOS//os/hal/include/dac.h"
 1781              		.file 36 "../../lib/e-puck2_main-processor/ChibiOS//os/hal/ports/STM32/LLD/DACv1/dac_lld.h"
 1782              		.file 37 "../../lib/e-puck2_main-processor/ChibiOS//os/hal/include/ext.h"
 1783              		.file 38 "../../lib/e-puck2_main-processor/ChibiOS//os/hal/ports/STM32/LLD/ext_lld.h"
 1784              		.file 39 "../../lib/e-puck2_main-processor/ChibiOS//os/hal/include/gpt.h"
 1785              		.file 40 "../../lib/e-puck2_main-processor/ChibiOS//os/hal/ports/STM32/LLD/TIMv1/gpt_lld.h"
 1786              		.file 41 "../../lib/e-puck2_main-processor/ChibiOS//os/hal/ports/STM32/LLD/TIMv1/stm32_tim.h"
 1787              		.file 42 "../../lib/e-puck2_main-processor/ChibiOS//os/hal/include/i2c.h"
 1788              		.file 43 "../../lib/e-puck2_main-processor/ChibiOS//os/hal/ports/STM32/LLD/I2Cv1/i2c_lld.h"
 1789              		.file 44 "../../lib/e-puck2_main-processor/ChibiOS//os/hal/include/i2s.h"
 1790              		.file 45 "../../lib/e-puck2_main-processor/ChibiOS//os/hal/ports/STM32/LLD/SPIv1/i2s_lld.h"
 1791              		.file 46 "../../lib/e-puck2_main-processor/ChibiOS//os/hal/include/pwm.h"
 1792              		.file 47 "../../lib/e-puck2_main-processor/ChibiOS//os/hal/ports/STM32/LLD/TIMv1/pwm_lld.h"
 1793              		.file 48 "../../lib/e-puck2_main-processor/ChibiOS//os/hal/include/serial.h"
 1794              		.file 49 "../../lib/e-puck2_main-processor/ChibiOS//os/hal/ports/STM32/LLD/USARTv1/serial_lld.h"
 1795              		.file 50 "../../lib/e-puck2_main-processor/ChibiOS//os/hal/include/sdc.h"
 1796              		.file 51 "../../lib/e-puck2_main-processor/ChibiOS//os/hal/ports/STM32/LLD/sdc_lld.h"
 1797              		.file 52 "../../lib/e-puck2_main-processor/ChibiOS//os/hal/include/spi.h"
 1798              		.file 53 "../../lib/e-puck2_main-processor/ChibiOS//os/hal/ports/STM32/LLD/SPIv1/spi_lld.h"
 1799              		.file 54 "../../lib/e-puck2_main-processor/ChibiOS//os/hal/include/usb.h"
 1800              		.file 55 "../../lib/e-puck2_main-processor/ChibiOS//os/hal/ports/STM32/LLD/OTGv1/usb_lld.h"
 1801              		.file 56 "../../lib/e-puck2_main-processor/ChibiOS//os/hal/ports/STM32/LLD/OTGv1/stm32_otg.h"
 1802              		.file 57 "../../lib/e-puck2_main-processor/ChibiOS//os/hal/include/serial_usb.h"
 1803              		.file 58 "../../lib/e-puck2_main-processor/ChibiOS_ext/os/hal/include/../ports/STM32/STM32F4xx/dcm
 1804              		.file 59 "./main.h"
 1805              		.file 60 "./find_path_to_exit.h"
 1806              		.file 61 "./manage_motors.h"
 1807              		.file 62 "/Applications/Eclipse_e-puck2.app/Contents/Eclipse_e-puck2/Tools/gcc-arm-none-eabi-7-201
 1808              		.file 63 "/Applications/Eclipse_e-puck2.app/Contents/Eclipse_e-puck2/Tools/gcc-arm-none-eabi-7-201
 1809              		.file 64 "../../lib/e-puck2_main-processor/src/usbcfg.h"
 1810              		.file 65 "../../lib/e-puck2_main-processor/ChibiOS//os/rt/include/chthreads.h"
 1811              		.file 66 "./manage_camera.h"
 1812              		.file 67 "../../lib/e-puck2_main-processor/src/sensors/proximity.h"