ARM GAS  /var/folders/rz/lph8rwt12pb77g4kvq2dx3yc0000gn/T//ccjcNjm7.s 			page 1


   1              		.cpu cortex-m4
   2              		.eabi_attribute 27, 1
   3              		.eabi_attribute 28, 1
   4              		.eabi_attribute 20, 1
   5              		.eabi_attribute 21, 1
   6              		.eabi_attribute 23, 3
   7              		.eabi_attribute 24, 1
   8              		.eabi_attribute 25, 1
   9              		.eabi_attribute 26, 1
  10              		.eabi_attribute 30, 2
  11              		.eabi_attribute 34, 1
  12              		.eabi_attribute 18, 4
  13              		.file	"main.c"
  14              		.text
  15              	.Ltext0:
  16              		.cfi_sections	.debug_frame
  17              		.section	.text.startup.main,"ax",%progbits
  18              		.align	1
  19              		.p2align 4,,15
  20              		.global	main
  21              		.syntax unified
  22              		.thumb
  23              		.thumb_func
  24              		.fpu fpv4-sp-d16
  25              		.type	main, %function
  26              	main:
  27              	.LFB219:
  28              		.file 1 "main.c"
  29              		.loc 1 5 0
  30              		.cfi_startproc
  31              		@ args = 0, pretend = 0, frame = 8
  32              		@ frame_needed = 0, uses_anonymous_args = 0
  33 0000 00B5     		push	{lr}
  34              		.cfi_def_cfa_offset 4
  35              		.cfi_offset 14, -4
  36 0002 074B     		ldr	r3, .L6
  37 0004 83B0     		sub	sp, sp, #12
  38              		.cfi_def_cfa_offset 16
  39              		.loc 1 5 0
  40 0006 1A68     		ldr	r2, [r3]
  41 0008 0192     		str	r2, [sp, #4]
  42              		.loc 1 7 0
  43 000a 019A     		ldr	r2, [sp, #4]
  44 000c 1B68     		ldr	r3, [r3]
  45 000e 9A42     		cmp	r2, r3
  46 0010 03D1     		bne	.L5
  47 0012 0020     		movs	r0, #0
  48 0014 03B0     		add	sp, sp, #12
  49              		.cfi_remember_state
  50              		.cfi_def_cfa_offset 4
  51              		@ sp needed
  52 0016 5DF804FB 		ldr	pc, [sp], #4
  53              	.L5:
  54              		.cfi_restore_state
  55 001a FFF7FEFF 		bl	__stack_chk_fail
  56              	.LVL0:
  57              	.L7:
ARM GAS  /var/folders/rz/lph8rwt12pb77g4kvq2dx3yc0000gn/T//ccjcNjm7.s 			page 2


  58 001e 00BF     		.align	2
  59              	.L6:
  60 0020 00000000 		.word	__stack_chk_guard
  61              		.cfi_endproc
  62              	.LFE219:
  63              		.size	main, .-main
  64              		.section	.text.__stack_chk_fail,"ax",%progbits
  65              		.align	1
  66              		.p2align 4,,15
  67              		.global	__stack_chk_fail
  68              		.syntax unified
  69              		.thumb
  70              		.thumb_func
  71              		.fpu fpv4-sp-d16
  72              		.type	__stack_chk_fail, %function
  73              	__stack_chk_fail:
  74              	.LFB220:
  75              		.loc 1 21 0
  76              		.cfi_startproc
  77              		@ args = 0, pretend = 0, frame = 8
  78              		@ frame_needed = 0, uses_anonymous_args = 0
  79 0000 00B5     		push	{lr}
  80              		.cfi_def_cfa_offset 4
  81              		.cfi_offset 14, -4
  82 0002 084B     		ldr	r3, .L13
  83 0004 83B0     		sub	sp, sp, #12
  84              		.cfi_def_cfa_offset 16
  85              		.loc 1 21 0
  86 0006 1A68     		ldr	r2, [r3]
  87 0008 0192     		str	r2, [sp, #4]
  88              		.loc 1 22 0
  89 000a 019A     		ldr	r2, [sp, #4]
  90 000c 1B68     		ldr	r3, [r3]
  91 000e 9A42     		cmp	r2, r3
  92 0010 05D1     		bne	.L12
  93 0012 0548     		ldr	r0, .L13+4
  94              		.loc 1 23 0
  95 0014 03B0     		add	sp, sp, #12
  96              		.cfi_remember_state
  97              		.cfi_def_cfa_offset 4
  98              		@ sp needed
  99 0016 5DF804EB 		ldr	lr, [sp], #4
 100              		.cfi_restore 14
 101              		.cfi_def_cfa_offset 0
 102              		.loc 1 22 0
 103 001a FFF7FEBF 		b	chSysHalt
 104              	.LVL1:
 105              	.L12:
 106              		.cfi_restore_state
 107 001e FFF7FEFF 		bl	__stack_chk_fail
 108              	.LVL2:
 109              	.L14:
 110 0022 00BF     		.align	2
 111              	.L13:
 112 0024 00000000 		.word	__stack_chk_guard
 113 0028 00000000 		.word	.LC0
 114              		.cfi_endproc
ARM GAS  /var/folders/rz/lph8rwt12pb77g4kvq2dx3yc0000gn/T//ccjcNjm7.s 			page 3


 115              	.LFE220:
 116              		.size	__stack_chk_fail, .-__stack_chk_fail
 117              		.global	__stack_chk_guard
 118              		.section	.data.__stack_chk_guard,"aw",%progbits
 119              		.align	2
 120              		.type	__stack_chk_guard, %object
 121              		.size	__stack_chk_guard, 4
 122              	__stack_chk_guard:
 123 0000 96E3DEE2 		.word	-488709226
 124              		.section	.rodata.__stack_chk_fail.str1.4,"aMS",%progbits,1
 125              		.align	2
 126              	.LC0:
 127 0000 53746163 		.ascii	"Stack smashing detected\000"
 127      6B20736D 
 127      61736869 
 127      6E672064 
 127      65746563 
 128              		.text
 129              	.Letext0:
 130              		.file 2 "/Applications/Eclipse_e-puck2.app/Contents/Eclipse_e-puck2/Tools/gcc-arm-none-eabi-7-2017
 131              		.file 3 "/Applications/Eclipse_e-puck2.app/Contents/Eclipse_e-puck2/Tools/gcc-arm-none-eabi-7-2017
 132              		.file 4 "/Applications/Eclipse_e-puck2.app/Contents/Eclipse_e-puck2/Tools/gcc-arm-none-eabi-7-2017
 133              		.file 5 "../../lib/e-puck2_main-processor/ChibiOS//os/rt/ports/ARMCMx/compilers/GCC/chtypes.h"
 134              		.file 6 "../../lib/e-puck2_main-processor/ChibiOS//os/rt/include/chsystypes.h"
 135              		.file 7 "../../lib/e-puck2_main-processor/ChibiOS//os/rt/include/chschd.h"
 136              		.file 8 "../../lib/e-puck2_main-processor/ChibiOS//os/ext/CMSIS/include/core_cm4.h"
 137              		.file 9 "../../lib/e-puck2_main-processor/ChibiOS//os/ext/CMSIS/ST/system_stm32f4xx.h"
 138              		.file 10 "../../lib/e-puck2_main-processor/ChibiOS//os/rt/ports/ARMCMx/chcore.h"
 139              		.file 11 "../../lib/e-puck2_main-processor/ChibiOS//os/rt/ports/ARMCMx/chcore_v7m.h"
 140              		.file 12 "../../lib/e-puck2_main-processor/ChibiOS//os/rt/include/chdebug.h"
 141              		.file 13 "../../lib/e-puck2_main-processor/ChibiOS//os/rt/include/chtm.h"
 142              		.file 14 "../../lib/e-puck2_main-processor/ChibiOS//os/rt/include/chstats.h"
 143              		.file 15 "../../lib/e-puck2_main-processor/ChibiOS//os/rt/include/chsem.h"
 144              		.file 16 "../../lib/e-puck2_main-processor/ChibiOS//os/rt/include/chmtx.h"
 145              		.file 17 "../../lib/e-puck2_main-processor/ChibiOS//os/rt/include/chregistry.h"
 146              		.file 18 "../../lib/e-puck2_main-processor/ChibiOS//os/rt/include/chsys.h"
 147              		.section	.debug_info,"",%progbits
 148              	.Ldebug_info0:
 149 0000 890A0000 		.4byte	0xa89
 150 0004 0400     		.2byte	0x4
 151 0006 00000000 		.4byte	.Ldebug_abbrev0
 152 000a 04       		.byte	0x4
 153 000b 01       		.uleb128 0x1
 154 000c 9B020000 		.4byte	.LASF160
 155 0010 0C       		.byte	0xc
 156 0011 79040000 		.4byte	.LASF161
 157 0015 BC010000 		.4byte	.LASF162
 158 0019 00000000 		.4byte	.Ldebug_ranges0+0
 159 001d 00000000 		.4byte	0
 160 0021 00000000 		.4byte	.Ldebug_line0
 161 0025 02       		.uleb128 0x2
 162 0026 04       		.byte	0x4
 163 0027 05       		.byte	0x5
 164 0028 696E7400 		.ascii	"int\000"
 165 002c 03       		.uleb128 0x3
 166 002d 22000000 		.4byte	.LASF4
 167 0031 02       		.byte	0x2
ARM GAS  /var/folders/rz/lph8rwt12pb77g4kvq2dx3yc0000gn/T//ccjcNjm7.s 			page 4


 168 0032 D8       		.byte	0xd8
 169 0033 37000000 		.4byte	0x37
 170 0037 04       		.uleb128 0x4
 171 0038 04       		.byte	0x4
 172 0039 07       		.byte	0x7
 173 003a 8E020000 		.4byte	.LASF0
 174 003e 04       		.uleb128 0x4
 175 003f 08       		.byte	0x8
 176 0040 05       		.byte	0x5
 177 0041 32010000 		.4byte	.LASF1
 178 0045 04       		.uleb128 0x4
 179 0046 08       		.byte	0x8
 180 0047 04       		.byte	0x4
 181 0048 12050000 		.4byte	.LASF2
 182 004c 04       		.uleb128 0x4
 183 004d 01       		.byte	0x1
 184 004e 06       		.byte	0x6
 185 004f 40010000 		.4byte	.LASF3
 186 0053 03       		.uleb128 0x3
 187 0054 50000000 		.4byte	.LASF5
 188 0058 03       		.byte	0x3
 189 0059 2B       		.byte	0x2b
 190 005a 5E000000 		.4byte	0x5e
 191 005e 04       		.uleb128 0x4
 192 005f 01       		.byte	0x1
 193 0060 08       		.byte	0x8
 194 0061 F8050000 		.4byte	.LASF6
 195 0065 04       		.uleb128 0x4
 196 0066 02       		.byte	0x2
 197 0067 05       		.byte	0x5
 198 0068 10060000 		.4byte	.LASF7
 199 006c 03       		.uleb128 0x3
 200 006d 1E070000 		.4byte	.LASF8
 201 0071 03       		.byte	0x3
 202 0072 39       		.byte	0x39
 203 0073 77000000 		.4byte	0x77
 204 0077 04       		.uleb128 0x4
 205 0078 02       		.byte	0x2
 206 0079 07       		.byte	0x7
 207 007a 2F040000 		.4byte	.LASF9
 208 007e 03       		.uleb128 0x3
 209 007f B1040000 		.4byte	.LASF10
 210 0083 03       		.byte	0x3
 211 0084 4D       		.byte	0x4d
 212 0085 89000000 		.4byte	0x89
 213 0089 04       		.uleb128 0x4
 214 008a 04       		.byte	0x4
 215 008b 05       		.byte	0x5
 216 008c 9A010000 		.4byte	.LASF11
 217 0090 03       		.uleb128 0x3
 218 0091 5C070000 		.4byte	.LASF12
 219 0095 03       		.byte	0x3
 220 0096 4F       		.byte	0x4f
 221 0097 9B000000 		.4byte	0x9b
 222 009b 04       		.uleb128 0x4
 223 009c 04       		.byte	0x4
 224 009d 07       		.byte	0x7
ARM GAS  /var/folders/rz/lph8rwt12pb77g4kvq2dx3yc0000gn/T//ccjcNjm7.s 			page 5


 225 009e 00070000 		.4byte	.LASF13
 226 00a2 03       		.uleb128 0x3
 227 00a3 83050000 		.4byte	.LASF14
 228 00a7 03       		.byte	0x3
 229 00a8 69       		.byte	0x69
 230 00a9 AD000000 		.4byte	0xad
 231 00ad 04       		.uleb128 0x4
 232 00ae 08       		.byte	0x8
 233 00af 07       		.byte	0x7
 234 00b0 9F000000 		.4byte	.LASF15
 235 00b4 03       		.uleb128 0x3
 236 00b5 F4060000 		.4byte	.LASF16
 237 00b9 03       		.byte	0x3
 238 00ba E8       		.byte	0xe8
 239 00bb 37000000 		.4byte	0x37
 240 00bf 03       		.uleb128 0x3
 241 00c0 BF070000 		.4byte	.LASF17
 242 00c4 04       		.byte	0x4
 243 00c5 18       		.byte	0x18
 244 00c6 53000000 		.4byte	0x53
 245 00ca 03       		.uleb128 0x3
 246 00cb DF030000 		.4byte	.LASF18
 247 00cf 04       		.byte	0x4
 248 00d0 24       		.byte	0x24
 249 00d1 6C000000 		.4byte	0x6c
 250 00d5 03       		.uleb128 0x3
 251 00d6 F0050000 		.4byte	.LASF19
 252 00da 04       		.byte	0x4
 253 00db 2C       		.byte	0x2c
 254 00dc 7E000000 		.4byte	0x7e
 255 00e0 05       		.uleb128 0x5
 256 00e1 D5000000 		.4byte	0xd5
 257 00e5 03       		.uleb128 0x3
 258 00e6 BF060000 		.4byte	.LASF20
 259 00ea 04       		.byte	0x4
 260 00eb 30       		.byte	0x30
 261 00ec 90000000 		.4byte	0x90
 262 00f0 03       		.uleb128 0x3
 263 00f1 3A000000 		.4byte	.LASF21
 264 00f5 04       		.byte	0x4
 265 00f6 3C       		.byte	0x3c
 266 00f7 A2000000 		.4byte	0xa2
 267 00fb 03       		.uleb128 0x3
 268 00fc 29000000 		.4byte	.LASF22
 269 0100 04       		.byte	0x4
 270 0101 52       		.byte	0x52
 271 0102 B4000000 		.4byte	0xb4
 272 0106 03       		.uleb128 0x3
 273 0107 F3040000 		.4byte	.LASF23
 274 010b 05       		.byte	0x5
 275 010c 45       		.byte	0x45
 276 010d E5000000 		.4byte	0xe5
 277 0111 03       		.uleb128 0x3
 278 0112 0D010000 		.4byte	.LASF24
 279 0116 05       		.byte	0x5
 280 0117 46       		.byte	0x46
 281 0118 F0000000 		.4byte	0xf0
ARM GAS  /var/folders/rz/lph8rwt12pb77g4kvq2dx3yc0000gn/T//ccjcNjm7.s 			page 6


 282 011c 03       		.uleb128 0x3
 283 011d 41060000 		.4byte	.LASF25
 284 0121 05       		.byte	0x5
 285 0122 48       		.byte	0x48
 286 0123 BF000000 		.4byte	0xbf
 287 0127 03       		.uleb128 0x3
 288 0128 A3010000 		.4byte	.LASF26
 289 012c 05       		.byte	0x5
 290 012d 49       		.byte	0x49
 291 012e BF000000 		.4byte	0xbf
 292 0132 03       		.uleb128 0x3
 293 0133 AB050000 		.4byte	.LASF27
 294 0137 05       		.byte	0x5
 295 0138 4A       		.byte	0x4a
 296 0139 BF000000 		.4byte	0xbf
 297 013d 03       		.uleb128 0x3
 298 013e 80010000 		.4byte	.LASF28
 299 0142 05       		.byte	0x5
 300 0143 4B       		.byte	0x4b
 301 0144 BF000000 		.4byte	0xbf
 302 0148 03       		.uleb128 0x3
 303 0149 DF050000 		.4byte	.LASF29
 304 014d 05       		.byte	0x5
 305 014e 4C       		.byte	0x4c
 306 014f E5000000 		.4byte	0xe5
 307 0153 03       		.uleb128 0x3
 308 0154 5B040000 		.4byte	.LASF30
 309 0158 05       		.byte	0x5
 310 0159 4D       		.byte	0x4d
 311 015a D5000000 		.4byte	0xd5
 312 015e 03       		.uleb128 0x3
 313 015f A5040000 		.4byte	.LASF31
 314 0163 05       		.byte	0x5
 315 0164 4F       		.byte	0x4f
 316 0165 E5000000 		.4byte	0xe5
 317 0169 03       		.uleb128 0x3
 318 016a 7D020000 		.4byte	.LASF32
 319 016e 05       		.byte	0x5
 320 016f 51       		.byte	0x51
 321 0170 D5000000 		.4byte	0xd5
 322 0174 03       		.uleb128 0x3
 323 0175 66040000 		.4byte	.LASF33
 324 0179 05       		.byte	0x5
 325 017a 52       		.byte	0x52
 326 017b E5000000 		.4byte	0xe5
 327 017f 03       		.uleb128 0x3
 328 0180 3E070000 		.4byte	.LASF34
 329 0184 06       		.byte	0x6
 330 0185 33       		.byte	0x33
 331 0186 E5000000 		.4byte	0xe5
 332 018a 05       		.uleb128 0x5
 333 018b 7F010000 		.4byte	0x17f
 334 018f 03       		.uleb128 0x3
 335 0190 29070000 		.4byte	.LASF35
 336 0194 06       		.byte	0x6
 337 0195 3F       		.byte	0x3f
 338 0196 9A010000 		.4byte	0x19a
ARM GAS  /var/folders/rz/lph8rwt12pb77g4kvq2dx3yc0000gn/T//ccjcNjm7.s 			page 7


 339 019a 06       		.uleb128 0x6
 340 019b 51040000 		.4byte	.LASF59
 341 019f 68       		.byte	0x68
 342 01a0 07       		.byte	0x7
 343 01a1 C2       		.byte	0xc2
 344 01a2 B8020000 		.4byte	0x2b8
 345 01a6 07       		.uleb128 0x7
 346 01a7 3A060000 		.4byte	.LASF36
 347 01ab 07       		.byte	0x7
 348 01ac C3       		.byte	0xc3
 349 01ad C3020000 		.4byte	0x2c3
 350 01b1 00       		.byte	0
 351 01b2 07       		.uleb128 0x7
 352 01b3 D8050000 		.4byte	.LASF37
 353 01b7 07       		.byte	0x7
 354 01b8 C5       		.byte	0xc5
 355 01b9 C3020000 		.4byte	0x2c3
 356 01bd 04       		.byte	0x4
 357 01be 07       		.uleb128 0x7
 358 01bf 16010000 		.4byte	.LASF38
 359 01c3 07       		.byte	0x7
 360 01c4 C7       		.byte	0xc7
 361 01c5 48010000 		.4byte	0x148
 362 01c9 08       		.byte	0x8
 363 01ca 07       		.uleb128 0x7
 364 01cb 5A050000 		.4byte	.LASF39
 365 01cf 07       		.byte	0x7
 366 01d0 C8       		.byte	0xc8
 367 01d1 3C050000 		.4byte	0x53c
 368 01d5 0C       		.byte	0xc
 369 01d6 07       		.uleb128 0x7
 370 01d7 0C020000 		.4byte	.LASF40
 371 01db 07       		.byte	0x7
 372 01dc CA       		.byte	0xca
 373 01dd C3020000 		.4byte	0x2c3
 374 01e1 10       		.byte	0x10
 375 01e2 07       		.uleb128 0x7
 376 01e3 4C050000 		.4byte	.LASF41
 377 01e7 07       		.byte	0x7
 378 01e8 CB       		.byte	0xcb
 379 01e9 C3020000 		.4byte	0x2c3
 380 01ed 14       		.byte	0x14
 381 01ee 07       		.uleb128 0x7
 382 01ef E1070000 		.4byte	.LASF42
 383 01f3 07       		.byte	0x7
 384 01f4 D2       		.byte	0xd2
 385 01f5 B2080000 		.4byte	0x8b2
 386 01f9 18       		.byte	0x18
 387 01fa 07       		.uleb128 0x7
 388 01fb 83020000 		.4byte	.LASF43
 389 01ff 07       		.byte	0x7
 390 0200 D8       		.byte	0xd8
 391 0201 C9080000 		.4byte	0x8c9
 392 0205 1C       		.byte	0x1c
 393 0206 07       		.uleb128 0x7
 394 0207 1A060000 		.4byte	.LASF44
 395 020b 07       		.byte	0x7
ARM GAS  /var/folders/rz/lph8rwt12pb77g4kvq2dx3yc0000gn/T//ccjcNjm7.s 			page 8


 396 020c DD       		.byte	0xdd
 397 020d 27010000 		.4byte	0x127
 398 0211 20       		.byte	0x20
 399 0212 07       		.uleb128 0x7
 400 0213 58060000 		.4byte	.LASF45
 401 0217 07       		.byte	0x7
 402 0218 E1       		.byte	0xe1
 403 0219 1C010000 		.4byte	0x11c
 404 021d 21       		.byte	0x21
 405 021e 07       		.uleb128 0x7
 406 021f A1070000 		.4byte	.LASF46
 407 0223 07       		.byte	0x7
 408 0224 E6       		.byte	0xe6
 409 0225 32010000 		.4byte	0x132
 410 0229 22       		.byte	0x22
 411 022a 07       		.uleb128 0x7
 412 022b 22060000 		.4byte	.LASF47
 413 022f 07       		.byte	0x7
 414 0230 EC       		.byte	0xec
 415 0231 3D010000 		.4byte	0x13d
 416 0235 23       		.byte	0x23
 417 0236 07       		.uleb128 0x7
 418 0237 F8030000 		.4byte	.LASF48
 419 023b 07       		.byte	0x7
 420 023c F3       		.byte	0xf3
 421 023d 8A010000 		.4byte	0x18a
 422 0241 24       		.byte	0x24
 423 0242 08       		.uleb128 0x8
 424 0243 705F7500 		.ascii	"p_u\000"
 425 0247 07       		.byte	0x7
 426 0248 3101     		.2byte	0x131
 427 024a E1070000 		.4byte	0x7e1
 428 024e 28       		.byte	0x28
 429 024f 09       		.uleb128 0x9
 430 0250 E9040000 		.4byte	.LASF49
 431 0254 07       		.byte	0x7
 432 0255 3601     		.2byte	0x136
 433 0257 C9020000 		.4byte	0x2c9
 434 025b 2C       		.byte	0x2c
 435 025c 09       		.uleb128 0x9
 436 025d 0F040000 		.4byte	.LASF50
 437 0261 07       		.byte	0x7
 438 0262 3C01     		.2byte	0x13c
 439 0264 ED020000 		.4byte	0x2ed
 440 0268 30       		.byte	0x30
 441 0269 09       		.uleb128 0x9
 442 026a 80070000 		.4byte	.LASF51
 443 026e 07       		.byte	0x7
 444 026f 4001     		.2byte	0x140
 445 0271 53010000 		.4byte	0x153
 446 0275 38       		.byte	0x38
 447 0276 09       		.uleb128 0x9
 448 0277 B4060000 		.4byte	.LASF52
 449 027b 07       		.byte	0x7
 450 027c 4601     		.2byte	0x146
 451 027e 5E010000 		.4byte	0x15e
 452 0282 3C       		.byte	0x3c
ARM GAS  /var/folders/rz/lph8rwt12pb77g4kvq2dx3yc0000gn/T//ccjcNjm7.s 			page 9


 453 0283 09       		.uleb128 0x9
 454 0284 06060000 		.4byte	.LASF53
 455 0288 07       		.byte	0x7
 456 0289 4D01     		.2byte	0x14d
 457 028b AC080000 		.4byte	0x8ac
 458 028f 40       		.byte	0x40
 459 0290 09       		.uleb128 0x9
 460 0291 48070000 		.4byte	.LASF54
 461 0295 07       		.byte	0x7
 462 0296 5101     		.2byte	0x151
 463 0298 48010000 		.4byte	0x148
 464 029c 44       		.byte	0x44
 465 029d 09       		.uleb128 0x9
 466 029e 69010000 		.4byte	.LASF55
 467 02a2 07       		.byte	0x7
 468 02a3 5801     		.2byte	0x158
 469 02a5 A0030000 		.4byte	0x3a0
 470 02a9 48       		.byte	0x48
 471 02aa 09       		.uleb128 0x9
 472 02ab 60060000 		.4byte	.LASF56
 473 02af 07       		.byte	0x7
 474 02b0 5E01     		.2byte	0x15e
 475 02b2 92070000 		.4byte	0x792
 476 02b6 50       		.byte	0x50
 477 02b7 00       		.byte	0
 478 02b8 03       		.uleb128 0x3
 479 02b9 C7070000 		.4byte	.LASF57
 480 02bd 06       		.byte	0x6
 481 02be 44       		.byte	0x44
 482 02bf C3020000 		.4byte	0x2c3
 483 02c3 0A       		.uleb128 0xa
 484 02c4 04       		.byte	0x4
 485 02c5 8F010000 		.4byte	0x18f
 486 02c9 03       		.uleb128 0x3
 487 02ca C6040000 		.4byte	.LASF58
 488 02ce 06       		.byte	0x6
 489 02cf 49       		.byte	0x49
 490 02d0 D4020000 		.4byte	0x2d4
 491 02d4 06       		.uleb128 0x6
 492 02d5 DC060000 		.4byte	.LASF60
 493 02d9 04       		.byte	0x4
 494 02da 07       		.byte	0x7
 495 02db B0       		.byte	0xb0
 496 02dc ED020000 		.4byte	0x2ed
 497 02e0 07       		.uleb128 0x7
 498 02e1 3A060000 		.4byte	.LASF36
 499 02e5 07       		.byte	0x7
 500 02e6 B1       		.byte	0xb1
 501 02e7 C3020000 		.4byte	0x2c3
 502 02eb 00       		.byte	0
 503 02ec 00       		.byte	0
 504 02ed 03       		.uleb128 0x3
 505 02ee 68060000 		.4byte	.LASF61
 506 02f2 06       		.byte	0x6
 507 02f3 50       		.byte	0x50
 508 02f4 F8020000 		.4byte	0x2f8
 509 02f8 06       		.uleb128 0x6
ARM GAS  /var/folders/rz/lph8rwt12pb77g4kvq2dx3yc0000gn/T//ccjcNjm7.s 			page 10


 510 02f9 66000000 		.4byte	.LASF62
 511 02fd 08       		.byte	0x8
 512 02fe 07       		.byte	0x7
 513 02ff B7       		.byte	0xb7
 514 0300 1D030000 		.4byte	0x31d
 515 0304 07       		.uleb128 0x7
 516 0305 3A060000 		.4byte	.LASF36
 517 0309 07       		.byte	0x7
 518 030a B8       		.byte	0xb8
 519 030b C3020000 		.4byte	0x2c3
 520 030f 00       		.byte	0
 521 0310 07       		.uleb128 0x7
 522 0311 D8050000 		.4byte	.LASF37
 523 0315 07       		.byte	0x7
 524 0316 B9       		.byte	0xb9
 525 0317 C3020000 		.4byte	0x2c3
 526 031b 04       		.byte	0x4
 527 031c 00       		.byte	0
 528 031d 03       		.uleb128 0x3
 529 031e 0D000000 		.4byte	.LASF63
 530 0322 06       		.byte	0x6
 531 0323 57       		.byte	0x57
 532 0324 28030000 		.4byte	0x328
 533 0328 0B       		.uleb128 0xb
 534 0329 97040000 		.4byte	.LASF64
 535 032d 1C       		.byte	0x1c
 536 032e 07       		.byte	0x7
 537 032f 9001     		.2byte	0x190
 538 0331 84030000 		.4byte	0x384
 539 0335 09       		.uleb128 0x9
 540 0336 D4060000 		.4byte	.LASF65
 541 033a 07       		.byte	0x7
 542 033b 9101     		.2byte	0x191
 543 033d ED020000 		.4byte	0x2ed
 544 0341 00       		.byte	0
 545 0342 09       		.uleb128 0x9
 546 0343 2C060000 		.4byte	.LASF66
 547 0347 07       		.byte	0x7
 548 0348 9201     		.2byte	0x192
 549 034a 48010000 		.4byte	0x148
 550 034e 08       		.byte	0x8
 551 034f 09       		.uleb128 0x9
 552 0350 54050000 		.4byte	.LASF67
 553 0354 07       		.byte	0x7
 554 0355 9401     		.2byte	0x194
 555 0357 3C050000 		.4byte	0x53c
 556 035b 0C       		.byte	0xc
 557 035c 09       		.uleb128 0x9
 558 035d 24020000 		.4byte	.LASF68
 559 0361 07       		.byte	0x7
 560 0362 9701     		.2byte	0x197
 561 0364 C3020000 		.4byte	0x2c3
 562 0368 10       		.byte	0x10
 563 0369 09       		.uleb128 0x9
 564 036a 7B050000 		.4byte	.LASF69
 565 036e 07       		.byte	0x7
 566 036f 9801     		.2byte	0x198
ARM GAS  /var/folders/rz/lph8rwt12pb77g4kvq2dx3yc0000gn/T//ccjcNjm7.s 			page 11


 567 0371 C3020000 		.4byte	0x2c3
 568 0375 14       		.byte	0x14
 569 0376 09       		.uleb128 0x9
 570 0377 71050000 		.4byte	.LASF70
 571 037b 07       		.byte	0x7
 572 037c 9B01     		.2byte	0x19b
 573 037e C3020000 		.4byte	0x2c3
 574 0382 18       		.byte	0x18
 575 0383 00       		.byte	0
 576 0384 03       		.uleb128 0x3
 577 0385 53070000 		.4byte	.LASF71
 578 0389 06       		.byte	0x6
 579 038a 5C       		.byte	0x5c
 580 038b 8F030000 		.4byte	0x38f
 581 038f 0A       		.uleb128 0xa
 582 0390 04       		.byte	0x4
 583 0391 95030000 		.4byte	0x395
 584 0395 0C       		.uleb128 0xc
 585 0396 A0030000 		.4byte	0x3a0
 586 039a 0D       		.uleb128 0xd
 587 039b A0030000 		.4byte	0x3a0
 588 039f 00       		.byte	0
 589 03a0 0E       		.uleb128 0xe
 590 03a1 04       		.byte	0x4
 591 03a2 03       		.uleb128 0x3
 592 03a3 C8050000 		.4byte	.LASF72
 593 03a7 06       		.byte	0x6
 594 03a8 61       		.byte	0x61
 595 03a9 AD030000 		.4byte	0x3ad
 596 03ad 0B       		.uleb128 0xb
 597 03ae 78060000 		.4byte	.LASF73
 598 03b2 14       		.byte	0x14
 599 03b3 07       		.byte	0x7
 600 03b4 6B01     		.2byte	0x16b
 601 03b6 FC030000 		.4byte	0x3fc
 602 03ba 09       		.uleb128 0x9
 603 03bb 5D020000 		.4byte	.LASF74
 604 03bf 07       		.byte	0x7
 605 03c0 6C01     		.2byte	0x16c
 606 03c2 CF080000 		.4byte	0x8cf
 607 03c6 00       		.byte	0
 608 03c7 09       		.uleb128 0x9
 609 03c8 35020000 		.4byte	.LASF75
 610 03cc 07       		.byte	0x7
 611 03cd 6D01     		.2byte	0x16d
 612 03cf CF080000 		.4byte	0x8cf
 613 03d3 04       		.byte	0x4
 614 03d4 09       		.uleb128 0x9
 615 03d5 06040000 		.4byte	.LASF76
 616 03d9 07       		.byte	0x7
 617 03da 6E01     		.2byte	0x16e
 618 03dc 7F010000 		.4byte	0x17f
 619 03e0 08       		.byte	0x8
 620 03e1 09       		.uleb128 0x9
 621 03e2 3B080000 		.4byte	.LASF77
 622 03e6 07       		.byte	0x7
 623 03e7 6F01     		.2byte	0x16f
ARM GAS  /var/folders/rz/lph8rwt12pb77g4kvq2dx3yc0000gn/T//ccjcNjm7.s 			page 12


 624 03e9 84030000 		.4byte	0x384
 625 03ed 0C       		.byte	0xc
 626 03ee 09       		.uleb128 0x9
 627 03ef 86070000 		.4byte	.LASF78
 628 03f3 07       		.byte	0x7
 629 03f4 7101     		.2byte	0x171
 630 03f6 A0030000 		.4byte	0x3a0
 631 03fa 10       		.byte	0x10
 632 03fb 00       		.byte	0
 633 03fc 03       		.uleb128 0x3
 634 03fd EA000000 		.4byte	.LASF79
 635 0401 06       		.byte	0x6
 636 0402 66       		.byte	0x66
 637 0403 07040000 		.4byte	0x407
 638 0407 0B       		.uleb128 0xb
 639 0408 FB040000 		.4byte	.LASF80
 640 040c 10       		.byte	0x10
 641 040d 07       		.byte	0x7
 642 040e 7B01     		.2byte	0x17b
 643 0410 49040000 		.4byte	0x449
 644 0414 09       		.uleb128 0x9
 645 0415 5D020000 		.4byte	.LASF74
 646 0419 07       		.byte	0x7
 647 041a 7C01     		.2byte	0x17c
 648 041c CF080000 		.4byte	0x8cf
 649 0420 00       		.byte	0
 650 0421 09       		.uleb128 0x9
 651 0422 35020000 		.4byte	.LASF75
 652 0426 07       		.byte	0x7
 653 0427 7E01     		.2byte	0x17e
 654 0429 CF080000 		.4byte	0x8cf
 655 042d 04       		.byte	0x4
 656 042e 09       		.uleb128 0x9
 657 042f 06040000 		.4byte	.LASF76
 658 0433 07       		.byte	0x7
 659 0434 8001     		.2byte	0x180
 660 0436 7F010000 		.4byte	0x17f
 661 043a 08       		.byte	0x8
 662 043b 09       		.uleb128 0x9
 663 043c E8070000 		.4byte	.LASF81
 664 0440 07       		.byte	0x7
 665 0441 8201     		.2byte	0x182
 666 0443 8A010000 		.4byte	0x18a
 667 0447 0C       		.byte	0xc
 668 0448 00       		.byte	0
 669 0449 03       		.uleb128 0x3
 670 044a 77000000 		.4byte	.LASF82
 671 044e 06       		.byte	0x6
 672 044f 6B       		.byte	0x6b
 673 0450 54040000 		.4byte	0x454
 674 0454 0F       		.uleb128 0xf
 675 0455 47020000 		.4byte	.LASF83
 676 0459 1404     		.2byte	0x414
 677 045b 07       		.byte	0x7
 678 045c A201     		.2byte	0x1a2
 679 045e 97040000 		.4byte	0x497
 680 0462 09       		.uleb128 0x9
ARM GAS  /var/folders/rz/lph8rwt12pb77g4kvq2dx3yc0000gn/T//ccjcNjm7.s 			page 13


 681 0463 67070000 		.4byte	.LASF84
 682 0467 07       		.byte	0x7
 683 0468 AA01     		.2byte	0x1aa
 684 046a B8080000 		.4byte	0x8b8
 685 046e 00       		.byte	0
 686 046f 09       		.uleb128 0x9
 687 0470 A8070000 		.4byte	.LASF85
 688 0474 07       		.byte	0x7
 689 0475 AF01     		.2byte	0x1af
 690 0477 69010000 		.4byte	0x169
 691 047b 04       		.byte	0x4
 692 047c 09       		.uleb128 0x9
 693 047d 65020000 		.4byte	.LASF86
 694 0481 07       		.byte	0x7
 695 0482 B301     		.2byte	0x1b3
 696 0484 69010000 		.4byte	0x169
 697 0488 08       		.byte	0x8
 698 0489 09       		.uleb128 0x9
 699 048a F3070000 		.4byte	.LASF87
 700 048e 07       		.byte	0x7
 701 048f B901     		.2byte	0x1b9
 702 0491 24070000 		.4byte	0x724
 703 0495 0C       		.byte	0xc
 704 0496 00       		.byte	0
 705 0497 03       		.uleb128 0x3
 706 0498 6D040000 		.4byte	.LASF88
 707 049c 06       		.byte	0x6
 708 049d 70       		.byte	0x70
 709 049e A2040000 		.4byte	0x4a2
 710 04a2 0F       		.uleb128 0xf
 711 04a3 90010000 		.4byte	.LASF89
 712 04a7 7006     		.2byte	0x670
 713 04a9 07       		.byte	0x7
 714 04aa C201     		.2byte	0x1c2
 715 04ac 0F050000 		.4byte	0x50f
 716 04b0 09       		.uleb128 0x9
 717 04b1 B9070000 		.4byte	.LASF90
 718 04b5 07       		.byte	0x7
 719 04b6 C601     		.2byte	0x1c6
 720 04b8 1D030000 		.4byte	0x31d
 721 04bc 00       		.byte	0
 722 04bd 09       		.uleb128 0x9
 723 04be 79010000 		.4byte	.LASF91
 724 04c2 07       		.byte	0x7
 725 04c3 CA01     		.2byte	0x1ca
 726 04c5 FC030000 		.4byte	0x3fc
 727 04c9 1C       		.byte	0x1c
 728 04ca 08       		.uleb128 0x8
 729 04cb 64626700 		.ascii	"dbg\000"
 730 04cf 07       		.byte	0x7
 731 04d0 CE01     		.2byte	0x1ce
 732 04d2 49040000 		.4byte	0x449
 733 04d6 2C       		.byte	0x2c
 734 04d7 10       		.uleb128 0x10
 735 04d8 DF000000 		.4byte	.LASF92
 736 04dc 07       		.byte	0x7
 737 04dd D201     		.2byte	0x1d2
ARM GAS  /var/folders/rz/lph8rwt12pb77g4kvq2dx3yc0000gn/T//ccjcNjm7.s 			page 14


 738 04df 8F010000 		.4byte	0x18f
 739 04e3 4004     		.2byte	0x440
 740 04e5 11       		.uleb128 0x11
 741 04e6 746D00   		.ascii	"tm\000"
 742 04e9 07       		.byte	0x7
 743 04ea D701     		.2byte	0x1d7
 744 04ec 44070000 		.4byte	0x744
 745 04f0 A804     		.2byte	0x4a8
 746 04f2 10       		.uleb128 0x10
 747 04f3 43000000 		.4byte	.LASF93
 748 04f7 07       		.byte	0x7
 749 04f8 DD01     		.2byte	0x1dd
 750 04fa D6070000 		.4byte	0x7d6
 751 04fe B004     		.2byte	0x4b0
 752 0500 10       		.uleb128 0x10
 753 0501 6E020000 		.4byte	.LASF94
 754 0505 07       		.byte	0x7
 755 0506 E301     		.2byte	0x1e3
 756 0508 D5080000 		.4byte	0x8d5
 757 050c E804     		.2byte	0x4e8
 758 050e 00       		.byte	0
 759 050f 12       		.uleb128 0x12
 760 0510 00010000 		.4byte	.LASF95
 761 0514 08       		.byte	0x8
 762 0515 A706     		.2byte	0x6a7
 763 0517 E0000000 		.4byte	0xe0
 764 051b 13       		.uleb128 0x13
 765 051c E8030000 		.4byte	.LASF96
 766 0520 09       		.byte	0x9
 767 0521 4C       		.byte	0x4c
 768 0522 E5000000 		.4byte	0xe5
 769 0526 03       		.uleb128 0x3
 770 0527 2C020000 		.4byte	.LASF97
 771 052b 0A       		.byte	0xa
 772 052c 65       		.byte	0x65
 773 052d A0030000 		.4byte	0x3a0
 774 0531 03       		.uleb128 0x3
 775 0532 BB040000 		.4byte	.LASF98
 776 0536 0A       		.byte	0xa
 777 0537 6D       		.byte	0x6d
 778 0538 F0000000 		.4byte	0xf0
 779 053c 06       		.uleb128 0x6
 780 053d 78070000 		.4byte	.LASF99
 781 0541 04       		.byte	0x4
 782 0542 0A       		.byte	0xa
 783 0543 89       		.byte	0x89
 784 0544 55050000 		.4byte	0x555
 785 0548 14       		.uleb128 0x14
 786 0549 72313300 		.ascii	"r13\000"
 787 054d 0A       		.byte	0xa
 788 054e 8A       		.byte	0x8a
 789 054f 96060000 		.4byte	0x696
 790 0553 00       		.byte	0
 791 0554 00       		.byte	0
 792 0555 06       		.uleb128 0x6
 793 0556 5A000000 		.4byte	.LASF100
 794 055a 64       		.byte	0x64
ARM GAS  /var/folders/rz/lph8rwt12pb77g4kvq2dx3yc0000gn/T//ccjcNjm7.s 			page 15


 795 055b 0B       		.byte	0xb
 796 055c F4       		.byte	0xf4
 797 055d 96060000 		.4byte	0x696
 798 0561 14       		.uleb128 0x14
 799 0562 73313600 		.ascii	"s16\000"
 800 0566 0B       		.byte	0xb
 801 0567 F6       		.byte	0xf6
 802 0568 26050000 		.4byte	0x526
 803 056c 00       		.byte	0
 804 056d 14       		.uleb128 0x14
 805 056e 73313700 		.ascii	"s17\000"
 806 0572 0B       		.byte	0xb
 807 0573 F7       		.byte	0xf7
 808 0574 26050000 		.4byte	0x526
 809 0578 04       		.byte	0x4
 810 0579 14       		.uleb128 0x14
 811 057a 73313800 		.ascii	"s18\000"
 812 057e 0B       		.byte	0xb
 813 057f F8       		.byte	0xf8
 814 0580 26050000 		.4byte	0x526
 815 0584 08       		.byte	0x8
 816 0585 14       		.uleb128 0x14
 817 0586 73313900 		.ascii	"s19\000"
 818 058a 0B       		.byte	0xb
 819 058b F9       		.byte	0xf9
 820 058c 26050000 		.4byte	0x526
 821 0590 0C       		.byte	0xc
 822 0591 14       		.uleb128 0x14
 823 0592 73323000 		.ascii	"s20\000"
 824 0596 0B       		.byte	0xb
 825 0597 FA       		.byte	0xfa
 826 0598 26050000 		.4byte	0x526
 827 059c 10       		.byte	0x10
 828 059d 14       		.uleb128 0x14
 829 059e 73323100 		.ascii	"s21\000"
 830 05a2 0B       		.byte	0xb
 831 05a3 FB       		.byte	0xfb
 832 05a4 26050000 		.4byte	0x526
 833 05a8 14       		.byte	0x14
 834 05a9 14       		.uleb128 0x14
 835 05aa 73323200 		.ascii	"s22\000"
 836 05ae 0B       		.byte	0xb
 837 05af FC       		.byte	0xfc
 838 05b0 26050000 		.4byte	0x526
 839 05b4 18       		.byte	0x18
 840 05b5 14       		.uleb128 0x14
 841 05b6 73323300 		.ascii	"s23\000"
 842 05ba 0B       		.byte	0xb
 843 05bb FD       		.byte	0xfd
 844 05bc 26050000 		.4byte	0x526
 845 05c0 1C       		.byte	0x1c
 846 05c1 14       		.uleb128 0x14
 847 05c2 73323400 		.ascii	"s24\000"
 848 05c6 0B       		.byte	0xb
 849 05c7 FE       		.byte	0xfe
 850 05c8 26050000 		.4byte	0x526
 851 05cc 20       		.byte	0x20
ARM GAS  /var/folders/rz/lph8rwt12pb77g4kvq2dx3yc0000gn/T//ccjcNjm7.s 			page 16


 852 05cd 14       		.uleb128 0x14
 853 05ce 73323500 		.ascii	"s25\000"
 854 05d2 0B       		.byte	0xb
 855 05d3 FF       		.byte	0xff
 856 05d4 26050000 		.4byte	0x526
 857 05d8 24       		.byte	0x24
 858 05d9 08       		.uleb128 0x8
 859 05da 73323600 		.ascii	"s26\000"
 860 05de 0B       		.byte	0xb
 861 05df 0001     		.2byte	0x100
 862 05e1 26050000 		.4byte	0x526
 863 05e5 28       		.byte	0x28
 864 05e6 08       		.uleb128 0x8
 865 05e7 73323700 		.ascii	"s27\000"
 866 05eb 0B       		.byte	0xb
 867 05ec 0101     		.2byte	0x101
 868 05ee 26050000 		.4byte	0x526
 869 05f2 2C       		.byte	0x2c
 870 05f3 08       		.uleb128 0x8
 871 05f4 73323800 		.ascii	"s28\000"
 872 05f8 0B       		.byte	0xb
 873 05f9 0201     		.2byte	0x102
 874 05fb 26050000 		.4byte	0x526
 875 05ff 30       		.byte	0x30
 876 0600 08       		.uleb128 0x8
 877 0601 73323900 		.ascii	"s29\000"
 878 0605 0B       		.byte	0xb
 879 0606 0301     		.2byte	0x103
 880 0608 26050000 		.4byte	0x526
 881 060c 34       		.byte	0x34
 882 060d 08       		.uleb128 0x8
 883 060e 73333000 		.ascii	"s30\000"
 884 0612 0B       		.byte	0xb
 885 0613 0401     		.2byte	0x104
 886 0615 26050000 		.4byte	0x526
 887 0619 38       		.byte	0x38
 888 061a 08       		.uleb128 0x8
 889 061b 73333100 		.ascii	"s31\000"
 890 061f 0B       		.byte	0xb
 891 0620 0501     		.2byte	0x105
 892 0622 26050000 		.4byte	0x526
 893 0626 3C       		.byte	0x3c
 894 0627 08       		.uleb128 0x8
 895 0628 723400   		.ascii	"r4\000"
 896 062b 0B       		.byte	0xb
 897 062c 0701     		.2byte	0x107
 898 062e 26050000 		.4byte	0x526
 899 0632 40       		.byte	0x40
 900 0633 08       		.uleb128 0x8
 901 0634 723500   		.ascii	"r5\000"
 902 0637 0B       		.byte	0xb
 903 0638 0801     		.2byte	0x108
 904 063a 26050000 		.4byte	0x526
 905 063e 44       		.byte	0x44
 906 063f 08       		.uleb128 0x8
 907 0640 723600   		.ascii	"r6\000"
 908 0643 0B       		.byte	0xb
ARM GAS  /var/folders/rz/lph8rwt12pb77g4kvq2dx3yc0000gn/T//ccjcNjm7.s 			page 17


 909 0644 0901     		.2byte	0x109
 910 0646 26050000 		.4byte	0x526
 911 064a 48       		.byte	0x48
 912 064b 08       		.uleb128 0x8
 913 064c 723700   		.ascii	"r7\000"
 914 064f 0B       		.byte	0xb
 915 0650 0A01     		.2byte	0x10a
 916 0652 26050000 		.4byte	0x526
 917 0656 4C       		.byte	0x4c
 918 0657 08       		.uleb128 0x8
 919 0658 723800   		.ascii	"r8\000"
 920 065b 0B       		.byte	0xb
 921 065c 0B01     		.2byte	0x10b
 922 065e 26050000 		.4byte	0x526
 923 0662 50       		.byte	0x50
 924 0663 08       		.uleb128 0x8
 925 0664 723900   		.ascii	"r9\000"
 926 0667 0B       		.byte	0xb
 927 0668 0C01     		.2byte	0x10c
 928 066a 26050000 		.4byte	0x526
 929 066e 54       		.byte	0x54
 930 066f 08       		.uleb128 0x8
 931 0670 72313000 		.ascii	"r10\000"
 932 0674 0B       		.byte	0xb
 933 0675 0D01     		.2byte	0x10d
 934 0677 26050000 		.4byte	0x526
 935 067b 58       		.byte	0x58
 936 067c 08       		.uleb128 0x8
 937 067d 72313100 		.ascii	"r11\000"
 938 0681 0B       		.byte	0xb
 939 0682 0E01     		.2byte	0x10e
 940 0684 26050000 		.4byte	0x526
 941 0688 5C       		.byte	0x5c
 942 0689 08       		.uleb128 0x8
 943 068a 6C7200   		.ascii	"lr\000"
 944 068d 0B       		.byte	0xb
 945 068e 0F01     		.2byte	0x10f
 946 0690 26050000 		.4byte	0x526
 947 0694 60       		.byte	0x60
 948 0695 00       		.byte	0
 949 0696 0A       		.uleb128 0xa
 950 0697 04       		.byte	0x4
 951 0698 55050000 		.4byte	0x555
 952 069c 15       		.uleb128 0x15
 953 069d 10       		.byte	0x10
 954 069e 0C       		.byte	0xc
 955 069f 51       		.byte	0x51
 956 06a0 D5060000 		.4byte	0x6d5
 957 06a4 07       		.uleb128 0x7
 958 06a5 1A000000 		.4byte	.LASF101
 959 06a9 0C       		.byte	0xc
 960 06aa 55       		.byte	0x55
 961 06ab 7F010000 		.4byte	0x17f
 962 06af 00       		.byte	0
 963 06b0 07       		.uleb128 0x7
 964 06b1 AC010000 		.4byte	.LASF102
 965 06b5 0C       		.byte	0xc
ARM GAS  /var/folders/rz/lph8rwt12pb77g4kvq2dx3yc0000gn/T//ccjcNjm7.s 			page 18


 966 06b6 59       		.byte	0x59
 967 06b7 C3020000 		.4byte	0x2c3
 968 06bb 04       		.byte	0x4
 969 06bc 07       		.uleb128 0x7
 970 06bd 23080000 		.4byte	.LASF103
 971 06c1 0C       		.byte	0xc
 972 06c2 5D       		.byte	0x5d
 973 06c3 A0030000 		.4byte	0x3a0
 974 06c7 08       		.byte	0x8
 975 06c8 07       		.uleb128 0x7
 976 06c9 B0070000 		.4byte	.LASF104
 977 06cd 0C       		.byte	0xc
 978 06ce 61       		.byte	0x61
 979 06cf BF000000 		.4byte	0xbf
 980 06d3 0C       		.byte	0xc
 981 06d4 00       		.byte	0
 982 06d5 03       		.uleb128 0x3
 983 06d6 31050000 		.4byte	.LASF105
 984 06da 0C       		.byte	0xc
 985 06db 62       		.byte	0x62
 986 06dc 9C060000 		.4byte	0x69c
 987 06e0 16       		.uleb128 0x16
 988 06e1 0804     		.2byte	0x408
 989 06e3 0C       		.byte	0xc
 990 06e4 67       		.byte	0x67
 991 06e5 0E070000 		.4byte	0x70e
 992 06e9 07       		.uleb128 0x7
 993 06ea 1C020000 		.4byte	.LASF106
 994 06ee 0C       		.byte	0xc
 995 06ef 6B       		.byte	0x6b
 996 06f0 37000000 		.4byte	0x37
 997 06f4 00       		.byte	0
 998 06f5 07       		.uleb128 0x7
 999 06f6 2A050000 		.4byte	.LASF107
 1000 06fa 0C       		.byte	0xc
 1001 06fb 6F       		.byte	0x6f
 1002 06fc 0E070000 		.4byte	0x70e
 1003 0700 04       		.byte	0x4
 1004 0701 07       		.uleb128 0x7
 1005 0702 B3050000 		.4byte	.LASF108
 1006 0706 0C       		.byte	0xc
 1007 0707 73       		.byte	0x73
 1008 0708 14070000 		.4byte	0x714
 1009 070c 08       		.byte	0x8
 1010 070d 00       		.byte	0
 1011 070e 0A       		.uleb128 0xa
 1012 070f 04       		.byte	0x4
 1013 0710 D5060000 		.4byte	0x6d5
 1014 0714 17       		.uleb128 0x17
 1015 0715 D5060000 		.4byte	0x6d5
 1016 0719 24070000 		.4byte	0x724
 1017 071d 18       		.uleb128 0x18
 1018 071e 37000000 		.4byte	0x37
 1019 0722 3F       		.byte	0x3f
 1020 0723 00       		.byte	0
 1021 0724 03       		.uleb128 0x3
 1022 0725 B6000000 		.4byte	.LASF109
ARM GAS  /var/folders/rz/lph8rwt12pb77g4kvq2dx3yc0000gn/T//ccjcNjm7.s 			page 19


 1023 0729 0C       		.byte	0xc
 1024 072a 74       		.byte	0x74
 1025 072b E0060000 		.4byte	0x6e0
 1026 072f 15       		.uleb128 0x15
 1027 0730 04       		.byte	0x4
 1028 0731 0D       		.byte	0xd
 1029 0732 38       		.byte	0x38
 1030 0733 44070000 		.4byte	0x744
 1031 0737 07       		.uleb128 0x7
 1032 0738 71070000 		.4byte	.LASF110
 1033 073c 0D       		.byte	0xd
 1034 073d 3C       		.byte	0x3c
 1035 073e 06010000 		.4byte	0x106
 1036 0742 00       		.byte	0
 1037 0743 00       		.byte	0
 1038 0744 03       		.uleb128 0x3
 1039 0745 60050000 		.4byte	.LASF111
 1040 0749 0D       		.byte	0xd
 1041 074a 3D       		.byte	0x3d
 1042 074b 2F070000 		.4byte	0x72f
 1043 074f 15       		.uleb128 0x15
 1044 0750 18       		.byte	0x18
 1045 0751 0D       		.byte	0xd
 1046 0752 48       		.byte	0x48
 1047 0753 92070000 		.4byte	0x792
 1048 0757 07       		.uleb128 0x7
 1049 0758 32070000 		.4byte	.LASF112
 1050 075c 0D       		.byte	0xd
 1051 075d 49       		.byte	0x49
 1052 075e 06010000 		.4byte	0x106
 1053 0762 00       		.byte	0
 1054 0763 07       		.uleb128 0x7
 1055 0764 86000000 		.4byte	.LASF113
 1056 0768 0D       		.byte	0xd
 1057 0769 4A       		.byte	0x4a
 1058 076a 06010000 		.4byte	0x106
 1059 076e 04       		.byte	0x4
 1060 076f 07       		.uleb128 0x7
 1061 0770 61040000 		.4byte	.LASF114
 1062 0774 0D       		.byte	0xd
 1063 0775 4B       		.byte	0x4b
 1064 0776 06010000 		.4byte	0x106
 1065 077a 08       		.byte	0x8
 1066 077b 14       		.uleb128 0x14
 1067 077c 6E00     		.ascii	"n\000"
 1068 077e 0D       		.byte	0xd
 1069 077f 4C       		.byte	0x4c
 1070 0780 74010000 		.4byte	0x174
 1071 0784 0C       		.byte	0xc
 1072 0785 07       		.uleb128 0x7
 1073 0786 A0050000 		.4byte	.LASF115
 1074 078a 0D       		.byte	0xd
 1075 078b 4D       		.byte	0x4d
 1076 078c 11010000 		.4byte	0x111
 1077 0790 10       		.byte	0x10
 1078 0791 00       		.byte	0
 1079 0792 03       		.uleb128 0x3
ARM GAS  /var/folders/rz/lph8rwt12pb77g4kvq2dx3yc0000gn/T//ccjcNjm7.s 			page 20


 1080 0793 8C000000 		.4byte	.LASF116
 1081 0797 0D       		.byte	0xd
 1082 0798 4E       		.byte	0x4e
 1083 0799 4F070000 		.4byte	0x74f
 1084 079d 15       		.uleb128 0x15
 1085 079e 38       		.byte	0x38
 1086 079f 0E       		.byte	0xe
 1087 07a0 38       		.byte	0x38
 1088 07a1 D6070000 		.4byte	0x7d6
 1089 07a5 07       		.uleb128 0x7
 1090 07a6 23040000 		.4byte	.LASF117
 1091 07aa 0E       		.byte	0xe
 1092 07ab 39       		.byte	0x39
 1093 07ac 74010000 		.4byte	0x174
 1094 07b0 00       		.byte	0
 1095 07b1 07       		.uleb128 0x7
 1096 07b2 E7050000 		.4byte	.LASF118
 1097 07b6 0E       		.byte	0xe
 1098 07b7 3A       		.byte	0x3a
 1099 07b8 74010000 		.4byte	0x174
 1100 07bc 04       		.byte	0x4
 1101 07bd 07       		.uleb128 0x7
 1102 07be 10080000 		.4byte	.LASF119
 1103 07c2 0E       		.byte	0xe
 1104 07c3 3B       		.byte	0x3b
 1105 07c4 92070000 		.4byte	0x792
 1106 07c8 08       		.byte	0x8
 1107 07c9 07       		.uleb128 0x7
 1108 07ca 8C040000 		.4byte	.LASF120
 1109 07ce 0E       		.byte	0xe
 1110 07cf 3D       		.byte	0x3d
 1111 07d0 92070000 		.4byte	0x792
 1112 07d4 20       		.byte	0x20
 1113 07d5 00       		.byte	0
 1114 07d6 03       		.uleb128 0x3
 1115 07d7 42040000 		.4byte	.LASF121
 1116 07db 0E       		.byte	0xe
 1117 07dc 3F       		.byte	0x3f
 1118 07dd 9D070000 		.4byte	0x79d
 1119 07e1 19       		.uleb128 0x19
 1120 07e2 04       		.byte	0x4
 1121 07e3 07       		.byte	0x7
 1122 07e4 FA       		.byte	0xfa
 1123 07e5 3E080000 		.4byte	0x83e
 1124 07e9 1A       		.uleb128 0x1a
 1125 07ea 33000000 		.4byte	.LASF122
 1126 07ee 07       		.byte	0x7
 1127 07ef 0101     		.2byte	0x101
 1128 07f1 53010000 		.4byte	0x153
 1129 07f5 1A       		.uleb128 0x1a
 1130 07f6 D6000000 		.4byte	.LASF123
 1131 07fa 07       		.byte	0x7
 1132 07fb 0801     		.2byte	0x108
 1133 07fd 53010000 		.4byte	0x153
 1134 0801 1A       		.uleb128 0x1a
 1135 0802 DA070000 		.4byte	.LASF124
 1136 0806 07       		.byte	0x7
ARM GAS  /var/folders/rz/lph8rwt12pb77g4kvq2dx3yc0000gn/T//ccjcNjm7.s 			page 21


 1137 0807 0F01     		.2byte	0x10f
 1138 0809 A0030000 		.4byte	0x3a0
 1139 080d 1A       		.uleb128 0x1a
 1140 080e 8A010000 		.4byte	.LASF125
 1141 0812 07       		.byte	0x7
 1142 0813 1601     		.2byte	0x116
 1143 0815 3E080000 		.4byte	0x83e
 1144 0819 1A       		.uleb128 0x1a
 1145 081a FF030000 		.4byte	.LASF126
 1146 081e 07       		.byte	0x7
 1147 081f 1E01     		.2byte	0x11e
 1148 0821 69080000 		.4byte	0x869
 1149 0825 1A       		.uleb128 0x1a
 1150 0826 17070000 		.4byte	.LASF127
 1151 082a 07       		.byte	0x7
 1152 082b 2701     		.2byte	0x127
 1153 082d AC080000 		.4byte	0x8ac
 1154 0831 1A       		.uleb128 0x1a
 1155 0832 33060000 		.4byte	.LASF128
 1156 0836 07       		.byte	0x7
 1157 0837 2F01     		.2byte	0x12f
 1158 0839 5E010000 		.4byte	0x15e
 1159 083d 00       		.byte	0
 1160 083e 0A       		.uleb128 0xa
 1161 083f 04       		.byte	0x4
 1162 0840 B8020000 		.4byte	0x2b8
 1163 0844 06       		.uleb128 0x6
 1164 0845 A7060000 		.4byte	.LASF129
 1165 0849 0C       		.byte	0xc
 1166 084a 0F       		.byte	0xf
 1167 084b 34       		.byte	0x34
 1168 084c 69080000 		.4byte	0x869
 1169 0850 07       		.uleb128 0x7
 1170 0851 14020000 		.4byte	.LASF130
 1171 0855 0F       		.byte	0xf
 1172 0856 35       		.byte	0x35
 1173 0857 ED020000 		.4byte	0x2ed
 1174 085b 00       		.byte	0
 1175 085c 07       		.uleb128 0x7
 1176 085d 29040000 		.4byte	.LASF131
 1177 0861 0F       		.byte	0xf
 1178 0862 37       		.byte	0x37
 1179 0863 69010000 		.4byte	0x169
 1180 0867 08       		.byte	0x8
 1181 0868 00       		.byte	0
 1182 0869 0A       		.uleb128 0xa
 1183 086a 04       		.byte	0x4
 1184 086b 44080000 		.4byte	0x844
 1185 086f 06       		.uleb128 0x6
 1186 0870 98070000 		.4byte	.LASF132
 1187 0874 14       		.byte	0x14
 1188 0875 10       		.byte	0x10
 1189 0876 39       		.byte	0x39
 1190 0877 AC080000 		.4byte	0x8ac
 1191 087b 07       		.uleb128 0x7
 1192 087c 71010000 		.4byte	.LASF133
 1193 0880 10       		.byte	0x10
ARM GAS  /var/folders/rz/lph8rwt12pb77g4kvq2dx3yc0000gn/T//ccjcNjm7.s 			page 22


 1194 0881 3A       		.byte	0x3a
 1195 0882 ED020000 		.4byte	0x2ed
 1196 0886 00       		.byte	0
 1197 0887 07       		.uleb128 0x7
 1198 0888 1B080000 		.4byte	.LASF134
 1199 088c 10       		.byte	0x10
 1200 088d 3C       		.byte	0x3c
 1201 088e C3020000 		.4byte	0x2c3
 1202 0892 08       		.byte	0x8
 1203 0893 07       		.uleb128 0x7
 1204 0894 37070000 		.4byte	.LASF135
 1205 0898 10       		.byte	0x10
 1206 0899 3E       		.byte	0x3e
 1207 089a 070A0000 		.4byte	0xa07
 1208 089e 0C       		.byte	0xc
 1209 089f 07       		.uleb128 0x7
 1210 08a0 57020000 		.4byte	.LASF136
 1211 08a4 10       		.byte	0x10
 1212 08a5 41       		.byte	0x41
 1213 08a6 69010000 		.4byte	0x169
 1214 08aa 10       		.byte	0x10
 1215 08ab 00       		.byte	0
 1216 08ac 0A       		.uleb128 0xa
 1217 08ad 04       		.byte	0x4
 1218 08ae 6F080000 		.4byte	0x86f
 1219 08b2 0A       		.uleb128 0xa
 1220 08b3 04       		.byte	0x4
 1221 08b4 C4080000 		.4byte	0x8c4
 1222 08b8 05       		.uleb128 0x5
 1223 08b9 B2080000 		.4byte	0x8b2
 1224 08bd 04       		.uleb128 0x4
 1225 08be 01       		.byte	0x1
 1226 08bf 08       		.byte	0x8
 1227 08c0 12070000 		.4byte	.LASF137
 1228 08c4 1B       		.uleb128 0x1b
 1229 08c5 BD080000 		.4byte	0x8bd
 1230 08c9 0A       		.uleb128 0xa
 1231 08ca 04       		.byte	0x4
 1232 08cb 31050000 		.4byte	0x531
 1233 08cf 0A       		.uleb128 0xa
 1234 08d0 04       		.byte	0x4
 1235 08d1 A2030000 		.4byte	0x3a2
 1236 08d5 17       		.uleb128 0x17
 1237 08d6 31050000 		.4byte	0x531
 1238 08da E5080000 		.4byte	0x8e5
 1239 08de 18       		.uleb128 0x18
 1240 08df 37000000 		.4byte	0x37
 1241 08e3 30       		.byte	0x30
 1242 08e4 00       		.byte	0
 1243 08e5 1C       		.uleb128 0x1c
 1244 08e6 636800   		.ascii	"ch\000"
 1245 08e9 07       		.byte	0x7
 1246 08ea 0902     		.2byte	0x209
 1247 08ec 97040000 		.4byte	0x497
 1248 08f0 15       		.uleb128 0x15
 1249 08f1 16       		.byte	0x16
 1250 08f2 11       		.byte	0x11
ARM GAS  /var/folders/rz/lph8rwt12pb77g4kvq2dx3yc0000gn/T//ccjcNjm7.s 			page 23


 1251 08f3 34       		.byte	0x34
 1252 08f4 D1090000 		.4byte	0x9d1
 1253 08f8 07       		.uleb128 0x7
 1254 08f9 2D080000 		.4byte	.LASF138
 1255 08fd 11       		.byte	0x11
 1256 08fe 35       		.byte	0x35
 1257 08ff D1090000 		.4byte	0x9d1
 1258 0903 00       		.byte	0
 1259 0904 07       		.uleb128 0x7
 1260 0905 D5040000 		.4byte	.LASF139
 1261 0909 11       		.byte	0x11
 1262 090a 36       		.byte	0x36
 1263 090b BF000000 		.4byte	0xbf
 1264 090f 04       		.byte	0x4
 1265 0910 07       		.uleb128 0x7
 1266 0911 EC060000 		.4byte	.LASF140
 1267 0915 11       		.byte	0x11
 1268 0916 37       		.byte	0x37
 1269 0917 BF000000 		.4byte	0xbf
 1270 091b 05       		.byte	0x5
 1271 091c 07       		.uleb128 0x7
 1272 091d 00080000 		.4byte	.LASF141
 1273 0921 11       		.byte	0x11
 1274 0922 38       		.byte	0x38
 1275 0923 CA000000 		.4byte	0xca
 1276 0927 06       		.byte	0x6
 1277 0928 07       		.uleb128 0x7
 1278 0929 BD050000 		.4byte	.LASF142
 1279 092d 11       		.byte	0x11
 1280 092e 39       		.byte	0x39
 1281 092f BF000000 		.4byte	0xbf
 1282 0933 08       		.byte	0x8
 1283 0934 07       		.uleb128 0x7
 1284 0935 1E050000 		.4byte	.LASF143
 1285 0939 11       		.byte	0x11
 1286 093a 3A       		.byte	0x3a
 1287 093b BF000000 		.4byte	0xbf
 1288 093f 09       		.byte	0x9
 1289 0940 07       		.uleb128 0x7
 1290 0941 C8000000 		.4byte	.LASF144
 1291 0945 11       		.byte	0x11
 1292 0946 3B       		.byte	0x3b
 1293 0947 BF000000 		.4byte	0xbf
 1294 094b 0A       		.byte	0xa
 1295 094c 07       		.uleb128 0x7
 1296 094d C8060000 		.4byte	.LASF145
 1297 0951 11       		.byte	0x11
 1298 0952 3C       		.byte	0x3c
 1299 0953 BF000000 		.4byte	0xbf
 1300 0957 0B       		.byte	0xb
 1301 0958 07       		.uleb128 0x7
 1302 0959 8D070000 		.4byte	.LASF146
 1303 095d 11       		.byte	0x11
 1304 095e 3D       		.byte	0x3d
 1305 095f BF000000 		.4byte	0xbf
 1306 0963 0C       		.byte	0xc
 1307 0964 07       		.uleb128 0x7
ARM GAS  /var/folders/rz/lph8rwt12pb77g4kvq2dx3yc0000gn/T//ccjcNjm7.s 			page 24


 1308 0965 89060000 		.4byte	.LASF147
 1309 0969 11       		.byte	0x11
 1310 096a 3E       		.byte	0x3e
 1311 096b BF000000 		.4byte	0xbf
 1312 096f 0D       		.byte	0xd
 1313 0970 07       		.uleb128 0x7
 1314 0971 00000000 		.4byte	.LASF148
 1315 0975 11       		.byte	0x11
 1316 0976 3F       		.byte	0x3f
 1317 0977 BF000000 		.4byte	0xbf
 1318 097b 0E       		.byte	0xe
 1319 097c 07       		.uleb128 0x7
 1320 097d 40050000 		.4byte	.LASF149
 1321 0981 11       		.byte	0x11
 1322 0982 40       		.byte	0x40
 1323 0983 BF000000 		.4byte	0xbf
 1324 0987 0F       		.byte	0xf
 1325 0988 07       		.uleb128 0x7
 1326 0989 4C010000 		.4byte	.LASF150
 1327 098d 11       		.byte	0x11
 1328 098e 41       		.byte	0x41
 1329 098f BF000000 		.4byte	0xbf
 1330 0993 10       		.byte	0x10
 1331 0994 07       		.uleb128 0x7
 1332 0995 1D010000 		.4byte	.LASF151
 1333 0999 11       		.byte	0x11
 1334 099a 43       		.byte	0x43
 1335 099b BF000000 		.4byte	0xbf
 1336 099f 11       		.byte	0x11
 1337 09a0 07       		.uleb128 0x7
 1338 09a1 5C010000 		.4byte	.LASF152
 1339 09a5 11       		.byte	0x11
 1340 09a6 44       		.byte	0x44
 1341 09a7 BF000000 		.4byte	0xbf
 1342 09ab 12       		.byte	0x12
 1343 09ac 07       		.uleb128 0x7
 1344 09ad DD040000 		.4byte	.LASF153
 1345 09b1 11       		.byte	0x11
 1346 09b2 45       		.byte	0x45
 1347 09b3 BF000000 		.4byte	0xbf
 1348 09b7 13       		.byte	0x13
 1349 09b8 07       		.uleb128 0x7
 1350 09b9 49060000 		.4byte	.LASF154
 1351 09bd 11       		.byte	0x11
 1352 09be 46       		.byte	0x46
 1353 09bf BF000000 		.4byte	0xbf
 1354 09c3 14       		.byte	0x14
 1355 09c4 07       		.uleb128 0x7
 1356 09c5 80040000 		.4byte	.LASF155
 1357 09c9 11       		.byte	0x11
 1358 09ca 48       		.byte	0x48
 1359 09cb BF000000 		.4byte	0xbf
 1360 09cf 15       		.byte	0x15
 1361 09d0 00       		.byte	0
 1362 09d1 17       		.uleb128 0x17
 1363 09d2 BD080000 		.4byte	0x8bd
 1364 09d6 E1090000 		.4byte	0x9e1
ARM GAS  /var/folders/rz/lph8rwt12pb77g4kvq2dx3yc0000gn/T//ccjcNjm7.s 			page 25


 1365 09da 18       		.uleb128 0x18
 1366 09db 37000000 		.4byte	0x37
 1367 09df 03       		.byte	0x3
 1368 09e0 00       		.byte	0
 1369 09e1 03       		.uleb128 0x3
 1370 09e2 B2010000 		.4byte	.LASF156
 1371 09e6 11       		.byte	0x11
 1372 09e7 49       		.byte	0x49
 1373 09e8 F0080000 		.4byte	0x8f0
 1374 09ec 1B       		.uleb128 0x1b
 1375 09ed E1090000 		.4byte	0x9e1
 1376 09f1 13       		.uleb128 0x13
 1377 09f2 1A040000 		.4byte	.LASF157
 1378 09f6 11       		.byte	0x11
 1379 09f7 6E       		.byte	0x6e
 1380 09f8 EC090000 		.4byte	0x9ec
 1381 09fc 03       		.uleb128 0x3
 1382 09fd 2A010000 		.4byte	.LASF158
 1383 0a01 10       		.byte	0x10
 1384 0a02 34       		.byte	0x34
 1385 0a03 6F080000 		.4byte	0x86f
 1386 0a07 0A       		.uleb128 0xa
 1387 0a08 04       		.byte	0x4
 1388 0a09 FC090000 		.4byte	0x9fc
 1389 0a0d 1D       		.uleb128 0x1d
 1390 0a0e 8E050000 		.4byte	.LASF159
 1391 0a12 01       		.byte	0x1
 1392 0a13 12       		.byte	0x12
 1393 0a14 FB000000 		.4byte	0xfb
 1394 0a18 05       		.uleb128 0x5
 1395 0a19 03       		.byte	0x3
 1396 0a1a 00000000 		.4byte	__stack_chk_guard
 1397 0a1e 1E       		.uleb128 0x1e
 1398 0a1f 96060000 		.4byte	.LASF163
 1399 0a23 01       		.byte	0x1
 1400 0a24 14       		.byte	0x14
 1401 0a25 00000000 		.4byte	.LFB220
 1402 0a29 2C000000 		.4byte	.LFE220-.LFB220
 1403 0a2d 01       		.uleb128 0x1
 1404 0a2e 9C       		.byte	0x9c
 1405 0a2f 540A0000 		.4byte	0xa54
 1406 0a33 1F       		.uleb128 0x1f
 1407 0a34 1E000000 		.4byte	.LVL1
 1408 0a38 770A0000 		.4byte	0xa77
 1409 0a3c 4A0A0000 		.4byte	0xa4a
 1410 0a40 20       		.uleb128 0x20
 1411 0a41 01       		.uleb128 0x1
 1412 0a42 50       		.byte	0x50
 1413 0a43 05       		.uleb128 0x5
 1414 0a44 03       		.byte	0x3
 1415 0a45 00000000 		.4byte	.LC0
 1416 0a49 00       		.byte	0
 1417 0a4a 21       		.uleb128 0x21
 1418 0a4b 22000000 		.4byte	.LVL2
 1419 0a4f 830A0000 		.4byte	0xa83
 1420 0a53 00       		.byte	0
 1421 0a54 22       		.uleb128 0x22
ARM GAS  /var/folders/rz/lph8rwt12pb77g4kvq2dx3yc0000gn/T//ccjcNjm7.s 			page 26


 1422 0a55 0B080000 		.4byte	.LASF164
 1423 0a59 01       		.byte	0x1
 1424 0a5a 04       		.byte	0x4
 1425 0a5b 25000000 		.4byte	0x25
 1426 0a5f 00000000 		.4byte	.LFB219
 1427 0a63 24000000 		.4byte	.LFE219-.LFB219
 1428 0a67 01       		.uleb128 0x1
 1429 0a68 9C       		.byte	0x9c
 1430 0a69 770A0000 		.4byte	0xa77
 1431 0a6d 21       		.uleb128 0x21
 1432 0a6e 1E000000 		.4byte	.LVL0
 1433 0a72 830A0000 		.4byte	0xa83
 1434 0a76 00       		.byte	0
 1435 0a77 23       		.uleb128 0x23
 1436 0a78 3D020000 		.4byte	.LASF165
 1437 0a7c 3D020000 		.4byte	.LASF165
 1438 0a80 12       		.byte	0x12
 1439 0a81 1601     		.2byte	0x116
 1440 0a83 24       		.uleb128 0x24
 1441 0a84 96060000 		.4byte	.LASF163
 1442 0a88 96060000 		.4byte	.LASF163
 1443 0a8c 00       		.byte	0
 1444              		.section	.debug_abbrev,"",%progbits
 1445              	.Ldebug_abbrev0:
 1446 0000 01       		.uleb128 0x1
 1447 0001 11       		.uleb128 0x11
 1448 0002 01       		.byte	0x1
 1449 0003 25       		.uleb128 0x25
 1450 0004 0E       		.uleb128 0xe
 1451 0005 13       		.uleb128 0x13
 1452 0006 0B       		.uleb128 0xb
 1453 0007 03       		.uleb128 0x3
 1454 0008 0E       		.uleb128 0xe
 1455 0009 1B       		.uleb128 0x1b
 1456 000a 0E       		.uleb128 0xe
 1457 000b 55       		.uleb128 0x55
 1458 000c 17       		.uleb128 0x17
 1459 000d 11       		.uleb128 0x11
 1460 000e 01       		.uleb128 0x1
 1461 000f 10       		.uleb128 0x10
 1462 0010 17       		.uleb128 0x17
 1463 0011 00       		.byte	0
 1464 0012 00       		.byte	0
 1465 0013 02       		.uleb128 0x2
 1466 0014 24       		.uleb128 0x24
 1467 0015 00       		.byte	0
 1468 0016 0B       		.uleb128 0xb
 1469 0017 0B       		.uleb128 0xb
 1470 0018 3E       		.uleb128 0x3e
 1471 0019 0B       		.uleb128 0xb
 1472 001a 03       		.uleb128 0x3
 1473 001b 08       		.uleb128 0x8
 1474 001c 00       		.byte	0
 1475 001d 00       		.byte	0
 1476 001e 03       		.uleb128 0x3
 1477 001f 16       		.uleb128 0x16
 1478 0020 00       		.byte	0
ARM GAS  /var/folders/rz/lph8rwt12pb77g4kvq2dx3yc0000gn/T//ccjcNjm7.s 			page 27


 1479 0021 03       		.uleb128 0x3
 1480 0022 0E       		.uleb128 0xe
 1481 0023 3A       		.uleb128 0x3a
 1482 0024 0B       		.uleb128 0xb
 1483 0025 3B       		.uleb128 0x3b
 1484 0026 0B       		.uleb128 0xb
 1485 0027 49       		.uleb128 0x49
 1486 0028 13       		.uleb128 0x13
 1487 0029 00       		.byte	0
 1488 002a 00       		.byte	0
 1489 002b 04       		.uleb128 0x4
 1490 002c 24       		.uleb128 0x24
 1491 002d 00       		.byte	0
 1492 002e 0B       		.uleb128 0xb
 1493 002f 0B       		.uleb128 0xb
 1494 0030 3E       		.uleb128 0x3e
 1495 0031 0B       		.uleb128 0xb
 1496 0032 03       		.uleb128 0x3
 1497 0033 0E       		.uleb128 0xe
 1498 0034 00       		.byte	0
 1499 0035 00       		.byte	0
 1500 0036 05       		.uleb128 0x5
 1501 0037 35       		.uleb128 0x35
 1502 0038 00       		.byte	0
 1503 0039 49       		.uleb128 0x49
 1504 003a 13       		.uleb128 0x13
 1505 003b 00       		.byte	0
 1506 003c 00       		.byte	0
 1507 003d 06       		.uleb128 0x6
 1508 003e 13       		.uleb128 0x13
 1509 003f 01       		.byte	0x1
 1510 0040 03       		.uleb128 0x3
 1511 0041 0E       		.uleb128 0xe
 1512 0042 0B       		.uleb128 0xb
 1513 0043 0B       		.uleb128 0xb
 1514 0044 3A       		.uleb128 0x3a
 1515 0045 0B       		.uleb128 0xb
 1516 0046 3B       		.uleb128 0x3b
 1517 0047 0B       		.uleb128 0xb
 1518 0048 01       		.uleb128 0x1
 1519 0049 13       		.uleb128 0x13
 1520 004a 00       		.byte	0
 1521 004b 00       		.byte	0
 1522 004c 07       		.uleb128 0x7
 1523 004d 0D       		.uleb128 0xd
 1524 004e 00       		.byte	0
 1525 004f 03       		.uleb128 0x3
 1526 0050 0E       		.uleb128 0xe
 1527 0051 3A       		.uleb128 0x3a
 1528 0052 0B       		.uleb128 0xb
 1529 0053 3B       		.uleb128 0x3b
 1530 0054 0B       		.uleb128 0xb
 1531 0055 49       		.uleb128 0x49
 1532 0056 13       		.uleb128 0x13
 1533 0057 38       		.uleb128 0x38
 1534 0058 0B       		.uleb128 0xb
 1535 0059 00       		.byte	0
ARM GAS  /var/folders/rz/lph8rwt12pb77g4kvq2dx3yc0000gn/T//ccjcNjm7.s 			page 28


 1536 005a 00       		.byte	0
 1537 005b 08       		.uleb128 0x8
 1538 005c 0D       		.uleb128 0xd
 1539 005d 00       		.byte	0
 1540 005e 03       		.uleb128 0x3
 1541 005f 08       		.uleb128 0x8
 1542 0060 3A       		.uleb128 0x3a
 1543 0061 0B       		.uleb128 0xb
 1544 0062 3B       		.uleb128 0x3b
 1545 0063 05       		.uleb128 0x5
 1546 0064 49       		.uleb128 0x49
 1547 0065 13       		.uleb128 0x13
 1548 0066 38       		.uleb128 0x38
 1549 0067 0B       		.uleb128 0xb
 1550 0068 00       		.byte	0
 1551 0069 00       		.byte	0
 1552 006a 09       		.uleb128 0x9
 1553 006b 0D       		.uleb128 0xd
 1554 006c 00       		.byte	0
 1555 006d 03       		.uleb128 0x3
 1556 006e 0E       		.uleb128 0xe
 1557 006f 3A       		.uleb128 0x3a
 1558 0070 0B       		.uleb128 0xb
 1559 0071 3B       		.uleb128 0x3b
 1560 0072 05       		.uleb128 0x5
 1561 0073 49       		.uleb128 0x49
 1562 0074 13       		.uleb128 0x13
 1563 0075 38       		.uleb128 0x38
 1564 0076 0B       		.uleb128 0xb
 1565 0077 00       		.byte	0
 1566 0078 00       		.byte	0
 1567 0079 0A       		.uleb128 0xa
 1568 007a 0F       		.uleb128 0xf
 1569 007b 00       		.byte	0
 1570 007c 0B       		.uleb128 0xb
 1571 007d 0B       		.uleb128 0xb
 1572 007e 49       		.uleb128 0x49
 1573 007f 13       		.uleb128 0x13
 1574 0080 00       		.byte	0
 1575 0081 00       		.byte	0
 1576 0082 0B       		.uleb128 0xb
 1577 0083 13       		.uleb128 0x13
 1578 0084 01       		.byte	0x1
 1579 0085 03       		.uleb128 0x3
 1580 0086 0E       		.uleb128 0xe
 1581 0087 0B       		.uleb128 0xb
 1582 0088 0B       		.uleb128 0xb
 1583 0089 3A       		.uleb128 0x3a
 1584 008a 0B       		.uleb128 0xb
 1585 008b 3B       		.uleb128 0x3b
 1586 008c 05       		.uleb128 0x5
 1587 008d 01       		.uleb128 0x1
 1588 008e 13       		.uleb128 0x13
 1589 008f 00       		.byte	0
 1590 0090 00       		.byte	0
 1591 0091 0C       		.uleb128 0xc
 1592 0092 15       		.uleb128 0x15
ARM GAS  /var/folders/rz/lph8rwt12pb77g4kvq2dx3yc0000gn/T//ccjcNjm7.s 			page 29


 1593 0093 01       		.byte	0x1
 1594 0094 27       		.uleb128 0x27
 1595 0095 19       		.uleb128 0x19
 1596 0096 01       		.uleb128 0x1
 1597 0097 13       		.uleb128 0x13
 1598 0098 00       		.byte	0
 1599 0099 00       		.byte	0
 1600 009a 0D       		.uleb128 0xd
 1601 009b 05       		.uleb128 0x5
 1602 009c 00       		.byte	0
 1603 009d 49       		.uleb128 0x49
 1604 009e 13       		.uleb128 0x13
 1605 009f 00       		.byte	0
 1606 00a0 00       		.byte	0
 1607 00a1 0E       		.uleb128 0xe
 1608 00a2 0F       		.uleb128 0xf
 1609 00a3 00       		.byte	0
 1610 00a4 0B       		.uleb128 0xb
 1611 00a5 0B       		.uleb128 0xb
 1612 00a6 00       		.byte	0
 1613 00a7 00       		.byte	0
 1614 00a8 0F       		.uleb128 0xf
 1615 00a9 13       		.uleb128 0x13
 1616 00aa 01       		.byte	0x1
 1617 00ab 03       		.uleb128 0x3
 1618 00ac 0E       		.uleb128 0xe
 1619 00ad 0B       		.uleb128 0xb
 1620 00ae 05       		.uleb128 0x5
 1621 00af 3A       		.uleb128 0x3a
 1622 00b0 0B       		.uleb128 0xb
 1623 00b1 3B       		.uleb128 0x3b
 1624 00b2 05       		.uleb128 0x5
 1625 00b3 01       		.uleb128 0x1
 1626 00b4 13       		.uleb128 0x13
 1627 00b5 00       		.byte	0
 1628 00b6 00       		.byte	0
 1629 00b7 10       		.uleb128 0x10
 1630 00b8 0D       		.uleb128 0xd
 1631 00b9 00       		.byte	0
 1632 00ba 03       		.uleb128 0x3
 1633 00bb 0E       		.uleb128 0xe
 1634 00bc 3A       		.uleb128 0x3a
 1635 00bd 0B       		.uleb128 0xb
 1636 00be 3B       		.uleb128 0x3b
 1637 00bf 05       		.uleb128 0x5
 1638 00c0 49       		.uleb128 0x49
 1639 00c1 13       		.uleb128 0x13
 1640 00c2 38       		.uleb128 0x38
 1641 00c3 05       		.uleb128 0x5
 1642 00c4 00       		.byte	0
 1643 00c5 00       		.byte	0
 1644 00c6 11       		.uleb128 0x11
 1645 00c7 0D       		.uleb128 0xd
 1646 00c8 00       		.byte	0
 1647 00c9 03       		.uleb128 0x3
 1648 00ca 08       		.uleb128 0x8
 1649 00cb 3A       		.uleb128 0x3a
ARM GAS  /var/folders/rz/lph8rwt12pb77g4kvq2dx3yc0000gn/T//ccjcNjm7.s 			page 30


 1650 00cc 0B       		.uleb128 0xb
 1651 00cd 3B       		.uleb128 0x3b
 1652 00ce 05       		.uleb128 0x5
 1653 00cf 49       		.uleb128 0x49
 1654 00d0 13       		.uleb128 0x13
 1655 00d1 38       		.uleb128 0x38
 1656 00d2 05       		.uleb128 0x5
 1657 00d3 00       		.byte	0
 1658 00d4 00       		.byte	0
 1659 00d5 12       		.uleb128 0x12
 1660 00d6 34       		.uleb128 0x34
 1661 00d7 00       		.byte	0
 1662 00d8 03       		.uleb128 0x3
 1663 00d9 0E       		.uleb128 0xe
 1664 00da 3A       		.uleb128 0x3a
 1665 00db 0B       		.uleb128 0xb
 1666 00dc 3B       		.uleb128 0x3b
 1667 00dd 05       		.uleb128 0x5
 1668 00de 49       		.uleb128 0x49
 1669 00df 13       		.uleb128 0x13
 1670 00e0 3F       		.uleb128 0x3f
 1671 00e1 19       		.uleb128 0x19
 1672 00e2 3C       		.uleb128 0x3c
 1673 00e3 19       		.uleb128 0x19
 1674 00e4 00       		.byte	0
 1675 00e5 00       		.byte	0
 1676 00e6 13       		.uleb128 0x13
 1677 00e7 34       		.uleb128 0x34
 1678 00e8 00       		.byte	0
 1679 00e9 03       		.uleb128 0x3
 1680 00ea 0E       		.uleb128 0xe
 1681 00eb 3A       		.uleb128 0x3a
 1682 00ec 0B       		.uleb128 0xb
 1683 00ed 3B       		.uleb128 0x3b
 1684 00ee 0B       		.uleb128 0xb
 1685 00ef 49       		.uleb128 0x49
 1686 00f0 13       		.uleb128 0x13
 1687 00f1 3F       		.uleb128 0x3f
 1688 00f2 19       		.uleb128 0x19
 1689 00f3 3C       		.uleb128 0x3c
 1690 00f4 19       		.uleb128 0x19
 1691 00f5 00       		.byte	0
 1692 00f6 00       		.byte	0
 1693 00f7 14       		.uleb128 0x14
 1694 00f8 0D       		.uleb128 0xd
 1695 00f9 00       		.byte	0
 1696 00fa 03       		.uleb128 0x3
 1697 00fb 08       		.uleb128 0x8
 1698 00fc 3A       		.uleb128 0x3a
 1699 00fd 0B       		.uleb128 0xb
 1700 00fe 3B       		.uleb128 0x3b
 1701 00ff 0B       		.uleb128 0xb
 1702 0100 49       		.uleb128 0x49
 1703 0101 13       		.uleb128 0x13
 1704 0102 38       		.uleb128 0x38
 1705 0103 0B       		.uleb128 0xb
 1706 0104 00       		.byte	0
ARM GAS  /var/folders/rz/lph8rwt12pb77g4kvq2dx3yc0000gn/T//ccjcNjm7.s 			page 31


 1707 0105 00       		.byte	0
 1708 0106 15       		.uleb128 0x15
 1709 0107 13       		.uleb128 0x13
 1710 0108 01       		.byte	0x1
 1711 0109 0B       		.uleb128 0xb
 1712 010a 0B       		.uleb128 0xb
 1713 010b 3A       		.uleb128 0x3a
 1714 010c 0B       		.uleb128 0xb
 1715 010d 3B       		.uleb128 0x3b
 1716 010e 0B       		.uleb128 0xb
 1717 010f 01       		.uleb128 0x1
 1718 0110 13       		.uleb128 0x13
 1719 0111 00       		.byte	0
 1720 0112 00       		.byte	0
 1721 0113 16       		.uleb128 0x16
 1722 0114 13       		.uleb128 0x13
 1723 0115 01       		.byte	0x1
 1724 0116 0B       		.uleb128 0xb
 1725 0117 05       		.uleb128 0x5
 1726 0118 3A       		.uleb128 0x3a
 1727 0119 0B       		.uleb128 0xb
 1728 011a 3B       		.uleb128 0x3b
 1729 011b 0B       		.uleb128 0xb
 1730 011c 01       		.uleb128 0x1
 1731 011d 13       		.uleb128 0x13
 1732 011e 00       		.byte	0
 1733 011f 00       		.byte	0
 1734 0120 17       		.uleb128 0x17
 1735 0121 01       		.uleb128 0x1
 1736 0122 01       		.byte	0x1
 1737 0123 49       		.uleb128 0x49
 1738 0124 13       		.uleb128 0x13
 1739 0125 01       		.uleb128 0x1
 1740 0126 13       		.uleb128 0x13
 1741 0127 00       		.byte	0
 1742 0128 00       		.byte	0
 1743 0129 18       		.uleb128 0x18
 1744 012a 21       		.uleb128 0x21
 1745 012b 00       		.byte	0
 1746 012c 49       		.uleb128 0x49
 1747 012d 13       		.uleb128 0x13
 1748 012e 2F       		.uleb128 0x2f
 1749 012f 0B       		.uleb128 0xb
 1750 0130 00       		.byte	0
 1751 0131 00       		.byte	0
 1752 0132 19       		.uleb128 0x19
 1753 0133 17       		.uleb128 0x17
 1754 0134 01       		.byte	0x1
 1755 0135 0B       		.uleb128 0xb
 1756 0136 0B       		.uleb128 0xb
 1757 0137 3A       		.uleb128 0x3a
 1758 0138 0B       		.uleb128 0xb
 1759 0139 3B       		.uleb128 0x3b
 1760 013a 0B       		.uleb128 0xb
 1761 013b 01       		.uleb128 0x1
 1762 013c 13       		.uleb128 0x13
 1763 013d 00       		.byte	0
ARM GAS  /var/folders/rz/lph8rwt12pb77g4kvq2dx3yc0000gn/T//ccjcNjm7.s 			page 32


 1764 013e 00       		.byte	0
 1765 013f 1A       		.uleb128 0x1a
 1766 0140 0D       		.uleb128 0xd
 1767 0141 00       		.byte	0
 1768 0142 03       		.uleb128 0x3
 1769 0143 0E       		.uleb128 0xe
 1770 0144 3A       		.uleb128 0x3a
 1771 0145 0B       		.uleb128 0xb
 1772 0146 3B       		.uleb128 0x3b
 1773 0147 05       		.uleb128 0x5
 1774 0148 49       		.uleb128 0x49
 1775 0149 13       		.uleb128 0x13
 1776 014a 00       		.byte	0
 1777 014b 00       		.byte	0
 1778 014c 1B       		.uleb128 0x1b
 1779 014d 26       		.uleb128 0x26
 1780 014e 00       		.byte	0
 1781 014f 49       		.uleb128 0x49
 1782 0150 13       		.uleb128 0x13
 1783 0151 00       		.byte	0
 1784 0152 00       		.byte	0
 1785 0153 1C       		.uleb128 0x1c
 1786 0154 34       		.uleb128 0x34
 1787 0155 00       		.byte	0
 1788 0156 03       		.uleb128 0x3
 1789 0157 08       		.uleb128 0x8
 1790 0158 3A       		.uleb128 0x3a
 1791 0159 0B       		.uleb128 0xb
 1792 015a 3B       		.uleb128 0x3b
 1793 015b 05       		.uleb128 0x5
 1794 015c 49       		.uleb128 0x49
 1795 015d 13       		.uleb128 0x13
 1796 015e 3F       		.uleb128 0x3f
 1797 015f 19       		.uleb128 0x19
 1798 0160 3C       		.uleb128 0x3c
 1799 0161 19       		.uleb128 0x19
 1800 0162 00       		.byte	0
 1801 0163 00       		.byte	0
 1802 0164 1D       		.uleb128 0x1d
 1803 0165 34       		.uleb128 0x34
 1804 0166 00       		.byte	0
 1805 0167 03       		.uleb128 0x3
 1806 0168 0E       		.uleb128 0xe
 1807 0169 3A       		.uleb128 0x3a
 1808 016a 0B       		.uleb128 0xb
 1809 016b 3B       		.uleb128 0x3b
 1810 016c 0B       		.uleb128 0xb
 1811 016d 49       		.uleb128 0x49
 1812 016e 13       		.uleb128 0x13
 1813 016f 3F       		.uleb128 0x3f
 1814 0170 19       		.uleb128 0x19
 1815 0171 02       		.uleb128 0x2
 1816 0172 18       		.uleb128 0x18
 1817 0173 00       		.byte	0
 1818 0174 00       		.byte	0
 1819 0175 1E       		.uleb128 0x1e
 1820 0176 2E       		.uleb128 0x2e
ARM GAS  /var/folders/rz/lph8rwt12pb77g4kvq2dx3yc0000gn/T//ccjcNjm7.s 			page 33


 1821 0177 01       		.byte	0x1
 1822 0178 3F       		.uleb128 0x3f
 1823 0179 19       		.uleb128 0x19
 1824 017a 03       		.uleb128 0x3
 1825 017b 0E       		.uleb128 0xe
 1826 017c 3A       		.uleb128 0x3a
 1827 017d 0B       		.uleb128 0xb
 1828 017e 3B       		.uleb128 0x3b
 1829 017f 0B       		.uleb128 0xb
 1830 0180 27       		.uleb128 0x27
 1831 0181 19       		.uleb128 0x19
 1832 0182 11       		.uleb128 0x11
 1833 0183 01       		.uleb128 0x1
 1834 0184 12       		.uleb128 0x12
 1835 0185 06       		.uleb128 0x6
 1836 0186 40       		.uleb128 0x40
 1837 0187 18       		.uleb128 0x18
 1838 0188 9742     		.uleb128 0x2117
 1839 018a 19       		.uleb128 0x19
 1840 018b 01       		.uleb128 0x1
 1841 018c 13       		.uleb128 0x13
 1842 018d 00       		.byte	0
 1843 018e 00       		.byte	0
 1844 018f 1F       		.uleb128 0x1f
 1845 0190 898201   		.uleb128 0x4109
 1846 0193 01       		.byte	0x1
 1847 0194 11       		.uleb128 0x11
 1848 0195 01       		.uleb128 0x1
 1849 0196 9542     		.uleb128 0x2115
 1850 0198 19       		.uleb128 0x19
 1851 0199 31       		.uleb128 0x31
 1852 019a 13       		.uleb128 0x13
 1853 019b 01       		.uleb128 0x1
 1854 019c 13       		.uleb128 0x13
 1855 019d 00       		.byte	0
 1856 019e 00       		.byte	0
 1857 019f 20       		.uleb128 0x20
 1858 01a0 8A8201   		.uleb128 0x410a
 1859 01a3 00       		.byte	0
 1860 01a4 02       		.uleb128 0x2
 1861 01a5 18       		.uleb128 0x18
 1862 01a6 9142     		.uleb128 0x2111
 1863 01a8 18       		.uleb128 0x18
 1864 01a9 00       		.byte	0
 1865 01aa 00       		.byte	0
 1866 01ab 21       		.uleb128 0x21
 1867 01ac 898201   		.uleb128 0x4109
 1868 01af 00       		.byte	0
 1869 01b0 11       		.uleb128 0x11
 1870 01b1 01       		.uleb128 0x1
 1871 01b2 31       		.uleb128 0x31
 1872 01b3 13       		.uleb128 0x13
 1873 01b4 00       		.byte	0
 1874 01b5 00       		.byte	0
 1875 01b6 22       		.uleb128 0x22
 1876 01b7 2E       		.uleb128 0x2e
 1877 01b8 01       		.byte	0x1
ARM GAS  /var/folders/rz/lph8rwt12pb77g4kvq2dx3yc0000gn/T//ccjcNjm7.s 			page 34


 1878 01b9 3F       		.uleb128 0x3f
 1879 01ba 19       		.uleb128 0x19
 1880 01bb 03       		.uleb128 0x3
 1881 01bc 0E       		.uleb128 0xe
 1882 01bd 3A       		.uleb128 0x3a
 1883 01be 0B       		.uleb128 0xb
 1884 01bf 3B       		.uleb128 0x3b
 1885 01c0 0B       		.uleb128 0xb
 1886 01c1 27       		.uleb128 0x27
 1887 01c2 19       		.uleb128 0x19
 1888 01c3 49       		.uleb128 0x49
 1889 01c4 13       		.uleb128 0x13
 1890 01c5 11       		.uleb128 0x11
 1891 01c6 01       		.uleb128 0x1
 1892 01c7 12       		.uleb128 0x12
 1893 01c8 06       		.uleb128 0x6
 1894 01c9 40       		.uleb128 0x40
 1895 01ca 18       		.uleb128 0x18
 1896 01cb 9742     		.uleb128 0x2117
 1897 01cd 19       		.uleb128 0x19
 1898 01ce 01       		.uleb128 0x1
 1899 01cf 13       		.uleb128 0x13
 1900 01d0 00       		.byte	0
 1901 01d1 00       		.byte	0
 1902 01d2 23       		.uleb128 0x23
 1903 01d3 2E       		.uleb128 0x2e
 1904 01d4 00       		.byte	0
 1905 01d5 3F       		.uleb128 0x3f
 1906 01d6 19       		.uleb128 0x19
 1907 01d7 3C       		.uleb128 0x3c
 1908 01d8 19       		.uleb128 0x19
 1909 01d9 6E       		.uleb128 0x6e
 1910 01da 0E       		.uleb128 0xe
 1911 01db 03       		.uleb128 0x3
 1912 01dc 0E       		.uleb128 0xe
 1913 01dd 3A       		.uleb128 0x3a
 1914 01de 0B       		.uleb128 0xb
 1915 01df 3B       		.uleb128 0x3b
 1916 01e0 05       		.uleb128 0x5
 1917 01e1 00       		.byte	0
 1918 01e2 00       		.byte	0
 1919 01e3 24       		.uleb128 0x24
 1920 01e4 2E       		.uleb128 0x2e
 1921 01e5 00       		.byte	0
 1922 01e6 3F       		.uleb128 0x3f
 1923 01e7 19       		.uleb128 0x19
 1924 01e8 3C       		.uleb128 0x3c
 1925 01e9 19       		.uleb128 0x19
 1926 01ea 6E       		.uleb128 0x6e
 1927 01eb 0E       		.uleb128 0xe
 1928 01ec 03       		.uleb128 0x3
 1929 01ed 0E       		.uleb128 0xe
 1930 01ee 00       		.byte	0
 1931 01ef 00       		.byte	0
 1932 01f0 00       		.byte	0
 1933              		.section	.debug_aranges,"",%progbits
 1934 0000 24000000 		.4byte	0x24
ARM GAS  /var/folders/rz/lph8rwt12pb77g4kvq2dx3yc0000gn/T//ccjcNjm7.s 			page 35


 1935 0004 0200     		.2byte	0x2
 1936 0006 00000000 		.4byte	.Ldebug_info0
 1937 000a 04       		.byte	0x4
 1938 000b 00       		.byte	0
 1939 000c 0000     		.2byte	0
 1940 000e 0000     		.2byte	0
 1941 0010 00000000 		.4byte	.LFB219
 1942 0014 24000000 		.4byte	.LFE219-.LFB219
 1943 0018 00000000 		.4byte	.LFB220
 1944 001c 2C000000 		.4byte	.LFE220-.LFB220
 1945 0020 00000000 		.4byte	0
 1946 0024 00000000 		.4byte	0
 1947              		.section	.debug_ranges,"",%progbits
 1948              	.Ldebug_ranges0:
 1949 0000 00000000 		.4byte	.LFB219
 1950 0004 24000000 		.4byte	.LFE219
 1951 0008 00000000 		.4byte	.LFB220
 1952 000c 2C000000 		.4byte	.LFE220
 1953 0010 00000000 		.4byte	0
 1954 0014 00000000 		.4byte	0
 1955              		.section	.debug_line,"",%progbits
 1956              	.Ldebug_line0:
 1957 0000 EE030000 		.section	.debug_str,"MS",%progbits,1
 1957      0200C603 
 1957      00000201 
 1957      FB0E0D00 
 1957      01010101 
 1958              	.LASF148:
 1959 0000 63665F6F 		.ascii	"cf_off_older\000"
 1959      66665F6F 
 1959      6C646572 
 1959      00
 1960              	.LASF63:
 1961 000d 72656164 		.ascii	"ready_list_t\000"
 1961      795F6C69 
 1961      73745F74 
 1961      00
 1962              	.LASF101:
 1963 001a 73655F74 		.ascii	"se_time\000"
 1963      696D6500 
 1964              	.LASF4:
 1965 0022 73697A65 		.ascii	"size_t\000"
 1965      5F7400
 1966              	.LASF22:
 1967 0029 75696E74 		.ascii	"uintptr_t\000"
 1967      7074725F 
 1967      7400
 1968              	.LASF122:
 1969 0033 7264796D 		.ascii	"rdymsg\000"
 1969      736700
 1970              	.LASF21:
 1971 003a 75696E74 		.ascii	"uint64_t\000"
 1971      36345F74 
 1971      00
 1972              	.LASF93:
 1973 0043 6B65726E 		.ascii	"kernel_stats\000"
 1973      656C5F73 
ARM GAS  /var/folders/rz/lph8rwt12pb77g4kvq2dx3yc0000gn/T//ccjcNjm7.s 			page 36


 1973      74617473 
 1973      00
 1974              	.LASF5:
 1975 0050 5F5F7569 		.ascii	"__uint8_t\000"
 1975      6E74385F 
 1975      7400
 1976              	.LASF100:
 1977 005a 706F7274 		.ascii	"port_intctx\000"
 1977      5F696E74 
 1977      63747800 
 1978              	.LASF62:
 1979 0066 63685F74 		.ascii	"ch_threads_queue\000"
 1979      68726561 
 1979      64735F71 
 1979      75657565 
 1979      00
 1980              	.LASF82:
 1981 0077 73797374 		.ascii	"system_debug_t\000"
 1981      656D5F64 
 1981      65627567 
 1981      5F7400
 1982              	.LASF113:
 1983 0086 776F7273 		.ascii	"worst\000"
 1983      7400
 1984              	.LASF116:
 1985 008c 74696D65 		.ascii	"time_measurement_t\000"
 1985      5F6D6561 
 1985      73757265 
 1985      6D656E74 
 1985      5F7400
 1986              	.LASF15:
 1987 009f 6C6F6E67 		.ascii	"long long unsigned int\000"
 1987      206C6F6E 
 1987      6720756E 
 1987      7369676E 
 1987      65642069 
 1988              	.LASF109:
 1989 00b6 63685F74 		.ascii	"ch_trace_buffer_t\000"
 1989      72616365 
 1989      5F627566 
 1989      6665725F 
 1989      7400
 1990              	.LASF144:
 1991 00c8 63685F74 		.ascii	"ch_threadsize\000"
 1991      68726561 
 1991      6473697A 
 1991      6500
 1992              	.LASF123:
 1993 00d6 65786974 		.ascii	"exitcode\000"
 1993      636F6465 
 1993      00
 1994              	.LASF92:
 1995 00df 6D61696E 		.ascii	"mainthread\000"
 1995      74687265 
 1995      616400
 1996              	.LASF79:
 1997 00ea 76697274 		.ascii	"virtual_timers_list_t\000"
ARM GAS  /var/folders/rz/lph8rwt12pb77g4kvq2dx3yc0000gn/T//ccjcNjm7.s 			page 37


 1997      75616C5F 
 1997      74696D65 
 1997      72735F6C 
 1997      6973745F 
 1998              	.LASF95:
 1999 0100 49544D5F 		.ascii	"ITM_RxBuffer\000"
 1999      52784275 
 1999      66666572 
 1999      00
 2000              	.LASF24:
 2001 010d 72747469 		.ascii	"rttime_t\000"
 2001      6D655F74 
 2001      00
 2002              	.LASF38:
 2003 0116 705F7072 		.ascii	"p_prio\000"
 2003      696F00
 2004              	.LASF151:
 2005 011d 63665F6F 		.ascii	"cf_off_state\000"
 2005      66665F73 
 2005      74617465 
 2005      00
 2006              	.LASF158:
 2007 012a 6D757465 		.ascii	"mutex_t\000"
 2007      785F7400 
 2008              	.LASF1:
 2009 0132 6C6F6E67 		.ascii	"long long int\000"
 2009      206C6F6E 
 2009      6720696E 
 2009      7400
 2010              	.LASF3:
 2011 0140 7369676E 		.ascii	"signed char\000"
 2011      65642063 
 2011      68617200 
 2012              	.LASF150:
 2013 014c 63665F6F 		.ascii	"cf_off_stklimit\000"
 2013      66665F73 
 2013      746B6C69 
 2013      6D697400 
 2014              	.LASF152:
 2015 015c 63665F6F 		.ascii	"cf_off_flags\000"
 2015      66665F66 
 2015      6C616773 
 2015      00
 2016              	.LASF55:
 2017 0169 705F6D70 		.ascii	"p_mpool\000"
 2017      6F6F6C00 
 2018              	.LASF133:
 2019 0171 6D5F7175 		.ascii	"m_queue\000"
 2019      65756500 
 2020              	.LASF91:
 2021 0179 76746C69 		.ascii	"vtlist\000"
 2021      737400
 2022              	.LASF28:
 2023 0180 74736C69 		.ascii	"tslices_t\000"
 2023      6365735F 
 2023      7400
 2024              	.LASF125:
ARM GAS  /var/folders/rz/lph8rwt12pb77g4kvq2dx3yc0000gn/T//ccjcNjm7.s 			page 38


 2025 018a 77747472 		.ascii	"wttrp\000"
 2025      7000
 2026              	.LASF89:
 2027 0190 63685F73 		.ascii	"ch_system\000"
 2027      79737465 
 2027      6D00
 2028              	.LASF11:
 2029 019a 6C6F6E67 		.ascii	"long int\000"
 2029      20696E74 
 2029      00
 2030              	.LASF26:
 2031 01a3 74737461 		.ascii	"tstate_t\000"
 2031      74655F74 
 2031      00
 2032              	.LASF102:
 2033 01ac 73655F74 		.ascii	"se_tp\000"
 2033      7000
 2034              	.LASF156:
 2035 01b2 63686465 		.ascii	"chdebug_t\000"
 2035      6275675F 
 2035      7400
 2036              	.LASF162:
 2037 01bc 2F557365 		.ascii	"/Users/gaspardleroy/Desktop/Labyrinthe_Project/laby"
 2037      72732F67 
 2037      61737061 
 2037      72646C65 
 2037      726F792F 
 2038 01ef 72696E74 		.ascii	"rinthe_git_files/labyrinthe/\000"
 2038      68655F67 
 2038      69745F66 
 2038      696C6573 
 2038      2F6C6162 
 2039              	.LASF40:
 2040 020c 705F6E65 		.ascii	"p_newer\000"
 2040      77657200 
 2041              	.LASF130:
 2042 0214 735F7175 		.ascii	"s_queue\000"
 2042      65756500 
 2043              	.LASF106:
 2044 021c 74625F73 		.ascii	"tb_size\000"
 2044      697A6500 
 2045              	.LASF68:
 2046 0224 725F6E65 		.ascii	"r_newer\000"
 2046      77657200 
 2047              	.LASF97:
 2048 022c 72656761 		.ascii	"regarm_t\000"
 2048      726D5F74 
 2048      00
 2049              	.LASF75:
 2050 0235 76745F70 		.ascii	"vt_prev\000"
 2050      72657600 
 2051              	.LASF165:
 2052 023d 63685379 		.ascii	"chSysHalt\000"
 2052      7348616C 
 2052      7400
 2053              	.LASF83:
 2054 0247 63685F73 		.ascii	"ch_system_debug\000"
ARM GAS  /var/folders/rz/lph8rwt12pb77g4kvq2dx3yc0000gn/T//ccjcNjm7.s 			page 39


 2054      79737465 
 2054      6D5F6465 
 2054      62756700 
 2055              	.LASF136:
 2056 0257 6D5F636E 		.ascii	"m_cnt\000"
 2056      7400
 2057              	.LASF74:
 2058 025d 76745F6E 		.ascii	"vt_next\000"
 2058      65787400 
 2059              	.LASF86:
 2060 0265 6C6F636B 		.ascii	"lock_cnt\000"
 2060      5F636E74 
 2060      00
 2061              	.LASF94:
 2062 026e 69646C65 		.ascii	"idle_thread_wa\000"
 2062      5F746872 
 2062      6561645F 
 2062      776100
 2063              	.LASF32:
 2064 027d 636E745F 		.ascii	"cnt_t\000"
 2064      7400
 2065              	.LASF43:
 2066 0283 705F7374 		.ascii	"p_stklimit\000"
 2066      6B6C696D 
 2066      697400
 2067              	.LASF0:
 2068 028e 756E7369 		.ascii	"unsigned int\000"
 2068      676E6564 
 2068      20696E74 
 2068      00
 2069              	.LASF160:
 2070 029b 474E5520 		.ascii	"GNU C11 7.2.1 20170904 (release) [ARM/embedded-7-br"
 2070      43313120 
 2070      372E322E 
 2070      31203230 
 2070      31373039 
 2071 02ce 616E6368 		.ascii	"anch revision 255204] -mcpu=cortex-m4 -mfloat-abi=h"
 2071      20726576 
 2071      6973696F 
 2071      6E203235 
 2071      35323034 
 2072 0301 61726420 		.ascii	"ard -mfpu=fpv4-sp-d16 -mno-thumb-interwork -mthumb "
 2072      2D6D6670 
 2072      753D6670 
 2072      76342D73 
 2072      702D6431 
 2073 0334 2D676764 		.ascii	"-ggdb -O2 -fomit-frame-pointer -falign-functions=16"
 2073      62202D4F 
 2073      32202D66 
 2073      6F6D6974 
 2073      2D667261 
 2074 0367 202D666E 		.ascii	" -fno-strict-aliasing -fstack-protector-all -ffunct"
 2074      6F2D7374 
 2074      72696374 
 2074      2D616C69 
 2074      6173696E 
 2075 039a 696F6E2D 		.ascii	"ion-sections -fdata-sections -fno-common -fsingle-p"
ARM GAS  /var/folders/rz/lph8rwt12pb77g4kvq2dx3yc0000gn/T//ccjcNjm7.s 			page 40


 2075      73656374 
 2075      696F6E73 
 2075      202D6664 
 2075      6174612D 
 2076 03cd 72656369 		.ascii	"recision-constant\000"
 2076      73696F6E 
 2076      2D636F6E 
 2076      7374616E 
 2076      7400
 2077              	.LASF18:
 2078 03df 75696E74 		.ascii	"uint16_t\000"
 2078      31365F74 
 2078      00
 2079              	.LASF96:
 2080 03e8 53797374 		.ascii	"SystemCoreClock\000"
 2080      656D436F 
 2080      7265436C 
 2080      6F636B00 
 2081              	.LASF48:
 2082 03f8 705F7469 		.ascii	"p_time\000"
 2082      6D6500
 2083              	.LASF126:
 2084 03ff 77747365 		.ascii	"wtsemp\000"
 2084      6D7000
 2085              	.LASF76:
 2086 0406 76745F64 		.ascii	"vt_delta\000"
 2086      656C7461 
 2086      00
 2087              	.LASF50:
 2088 040f 705F6D73 		.ascii	"p_msgqueue\000"
 2088      67717565 
 2088      756500
 2089              	.LASF157:
 2090 041a 63685F64 		.ascii	"ch_debug\000"
 2090      65627567 
 2090      00
 2091              	.LASF117:
 2092 0423 6E5F6972 		.ascii	"n_irq\000"
 2092      7100
 2093              	.LASF131:
 2094 0429 735F636E 		.ascii	"s_cnt\000"
 2094      7400
 2095              	.LASF9:
 2096 042f 73686F72 		.ascii	"short unsigned int\000"
 2096      7420756E 
 2096      7369676E 
 2096      65642069 
 2096      6E7400
 2097              	.LASF121:
 2098 0442 6B65726E 		.ascii	"kernel_stats_t\000"
 2098      656C5F73 
 2098      74617473 
 2098      5F7400
 2099              	.LASF59:
 2100 0451 63685F74 		.ascii	"ch_thread\000"
 2100      68726561 
 2100      6400
ARM GAS  /var/folders/rz/lph8rwt12pb77g4kvq2dx3yc0000gn/T//ccjcNjm7.s 			page 41


 2101              	.LASF30:
 2102 045b 6D73675F 		.ascii	"msg_t\000"
 2102      7400
 2103              	.LASF114:
 2104 0461 6C617374 		.ascii	"last\000"
 2104      00
 2105              	.LASF33:
 2106 0466 75636E74 		.ascii	"ucnt_t\000"
 2106      5F7400
 2107              	.LASF88:
 2108 046d 63685F73 		.ascii	"ch_system_t\000"
 2108      79737465 
 2108      6D5F7400 
 2109              	.LASF161:
 2110 0479 6D61696E 		.ascii	"main.c\000"
 2110      2E6300
 2111              	.LASF155:
 2112 0480 63665F6F 		.ascii	"cf_off_time\000"
 2112      66665F74 
 2112      696D6500 
 2113              	.LASF120:
 2114 048c 6D5F6372 		.ascii	"m_crit_isr\000"
 2114      69745F69 
 2114      737200
 2115              	.LASF64:
 2116 0497 63685F72 		.ascii	"ch_ready_list\000"
 2116      65616479 
 2116      5F6C6973 
 2116      7400
 2117              	.LASF31:
 2118 04a5 6576656E 		.ascii	"eventmask_t\000"
 2118      746D6173 
 2118      6B5F7400 
 2119              	.LASF10:
 2120 04b1 5F5F696E 		.ascii	"__int32_t\000"
 2120      7433325F 
 2120      7400
 2121              	.LASF98:
 2122 04bb 73746B61 		.ascii	"stkalign_t\000"
 2122      6C69676E 
 2122      5F7400
 2123              	.LASF58:
 2124 04c6 74687265 		.ascii	"threads_list_t\000"
 2124      6164735F 
 2124      6C697374 
 2124      5F7400
 2125              	.LASF139:
 2126 04d5 63685F7A 		.ascii	"ch_zero\000"
 2126      65726F00 
 2127              	.LASF153:
 2128 04dd 63665F6F 		.ascii	"cf_off_refs\000"
 2128      66665F72 
 2128      65667300 
 2129              	.LASF49:
 2130 04e9 705F7761 		.ascii	"p_waiting\000"
 2130      6974696E 
 2130      6700
ARM GAS  /var/folders/rz/lph8rwt12pb77g4kvq2dx3yc0000gn/T//ccjcNjm7.s 			page 42


 2131              	.LASF23:
 2132 04f3 7274636E 		.ascii	"rtcnt_t\000"
 2132      745F7400 
 2133              	.LASF80:
 2134 04fb 63685F76 		.ascii	"ch_virtual_timers_list\000"
 2134      69727475 
 2134      616C5F74 
 2134      696D6572 
 2134      735F6C69 
 2135              	.LASF2:
 2136 0512 6C6F6E67 		.ascii	"long double\000"
 2136      20646F75 
 2136      626C6500 
 2137              	.LASF143:
 2138 051e 63685F74 		.ascii	"ch_timesize\000"
 2138      696D6573 
 2138      697A6500 
 2139              	.LASF107:
 2140 052a 74625F70 		.ascii	"tb_ptr\000"
 2140      747200
 2141              	.LASF105:
 2142 0531 63685F73 		.ascii	"ch_swc_event_t\000"
 2142      77635F65 
 2142      76656E74 
 2142      5F7400
 2143              	.LASF149:
 2144 0540 63665F6F 		.ascii	"cf_off_name\000"
 2144      66665F6E 
 2144      616D6500 
 2145              	.LASF41:
 2146 054c 705F6F6C 		.ascii	"p_older\000"
 2146      64657200 
 2147              	.LASF67:
 2148 0554 725F6374 		.ascii	"r_ctx\000"
 2148      7800
 2149              	.LASF39:
 2150 055a 705F6374 		.ascii	"p_ctx\000"
 2150      7800
 2151              	.LASF111:
 2152 0560 746D5F63 		.ascii	"tm_calibration_t\000"
 2152      616C6962 
 2152      72617469 
 2152      6F6E5F74 
 2152      00
 2153              	.LASF70:
 2154 0571 725F6375 		.ascii	"r_current\000"
 2154      7272656E 
 2154      7400
 2155              	.LASF69:
 2156 057b 725F6F6C 		.ascii	"r_older\000"
 2156      64657200 
 2157              	.LASF14:
 2158 0583 5F5F7569 		.ascii	"__uint64_t\000"
 2158      6E743634 
 2158      5F7400
 2159              	.LASF159:
 2160 058e 5F5F7374 		.ascii	"__stack_chk_guard\000"
ARM GAS  /var/folders/rz/lph8rwt12pb77g4kvq2dx3yc0000gn/T//ccjcNjm7.s 			page 43


 2160      61636B5F 
 2160      63686B5F 
 2160      67756172 
 2160      6400
 2161              	.LASF115:
 2162 05a0 63756D75 		.ascii	"cumulative\000"
 2162      6C617469 
 2162      766500
 2163              	.LASF27:
 2164 05ab 74726566 		.ascii	"trefs_t\000"
 2164      735F7400 
 2165              	.LASF108:
 2166 05b3 74625F62 		.ascii	"tb_buffer\000"
 2166      75666665 
 2166      7200
 2167              	.LASF142:
 2168 05bd 63685F70 		.ascii	"ch_ptrsize\000"
 2168      74727369 
 2168      7A6500
 2169              	.LASF72:
 2170 05c8 76697274 		.ascii	"virtual_timer_t\000"
 2170      75616C5F 
 2170      74696D65 
 2170      725F7400 
 2171              	.LASF37:
 2172 05d8 705F7072 		.ascii	"p_prev\000"
 2172      657600
 2173              	.LASF29:
 2174 05df 74707269 		.ascii	"tprio_t\000"
 2174      6F5F7400 
 2175              	.LASF118:
 2176 05e7 6E5F6374 		.ascii	"n_ctxswc\000"
 2176      78737763 
 2176      00
 2177              	.LASF19:
 2178 05f0 696E7433 		.ascii	"int32_t\000"
 2178      325F7400 
 2179              	.LASF6:
 2180 05f8 756E7369 		.ascii	"unsigned char\000"
 2180      676E6564 
 2180      20636861 
 2180      7200
 2181              	.LASF53:
 2182 0606 705F6D74 		.ascii	"p_mtxlist\000"
 2182      786C6973 
 2182      7400
 2183              	.LASF7:
 2184 0610 73686F72 		.ascii	"short int\000"
 2184      7420696E 
 2184      7400
 2185              	.LASF44:
 2186 061a 705F7374 		.ascii	"p_state\000"
 2186      61746500 
 2187              	.LASF47:
 2188 0622 705F7072 		.ascii	"p_preempt\000"
 2188      65656D70 
 2188      7400
ARM GAS  /var/folders/rz/lph8rwt12pb77g4kvq2dx3yc0000gn/T//ccjcNjm7.s 			page 44


 2189              	.LASF66:
 2190 062c 725F7072 		.ascii	"r_prio\000"
 2190      696F00
 2191              	.LASF128:
 2192 0633 65776D61 		.ascii	"ewmask\000"
 2192      736B00
 2193              	.LASF36:
 2194 063a 705F6E65 		.ascii	"p_next\000"
 2194      787400
 2195              	.LASF25:
 2196 0641 746D6F64 		.ascii	"tmode_t\000"
 2196      655F7400 
 2197              	.LASF154:
 2198 0649 63665F6F 		.ascii	"cf_off_preempt\000"
 2198      66665F70 
 2198      7265656D 
 2198      707400
 2199              	.LASF45:
 2200 0658 705F666C 		.ascii	"p_flags\000"
 2200      61677300 
 2201              	.LASF56:
 2202 0660 705F7374 		.ascii	"p_stats\000"
 2202      61747300 
 2203              	.LASF61:
 2204 0668 74687265 		.ascii	"threads_queue_t\000"
 2204      6164735F 
 2204      71756575 
 2204      655F7400 
 2205              	.LASF73:
 2206 0678 63685F76 		.ascii	"ch_virtual_timer\000"
 2206      69727475 
 2206      616C5F74 
 2206      696D6572 
 2206      00
 2207              	.LASF147:
 2208 0689 63665F6F 		.ascii	"cf_off_newer\000"
 2208      66665F6E 
 2208      65776572 
 2208      00
 2209              	.LASF163:
 2210 0696 5F5F7374 		.ascii	"__stack_chk_fail\000"
 2210      61636B5F 
 2210      63686B5F 
 2210      6661696C 
 2210      00
 2211              	.LASF129:
 2212 06a7 63685F73 		.ascii	"ch_semaphore\000"
 2212      656D6170 
 2212      686F7265 
 2212      00
 2213              	.LASF52:
 2214 06b4 705F6570 		.ascii	"p_epending\000"
 2214      656E6469 
 2214      6E6700
 2215              	.LASF20:
 2216 06bf 75696E74 		.ascii	"uint32_t\000"
 2216      33325F74 
ARM GAS  /var/folders/rz/lph8rwt12pb77g4kvq2dx3yc0000gn/T//ccjcNjm7.s 			page 45


 2216      00
 2217              	.LASF145:
 2218 06c8 63665F6F 		.ascii	"cf_off_prio\000"
 2218      66665F70 
 2218      72696F00 
 2219              	.LASF65:
 2220 06d4 725F7175 		.ascii	"r_queue\000"
 2220      65756500 
 2221              	.LASF60:
 2222 06dc 63685F74 		.ascii	"ch_threads_list\000"
 2222      68726561 
 2222      64735F6C 
 2222      69737400 
 2223              	.LASF140:
 2224 06ec 63685F73 		.ascii	"ch_size\000"
 2224      697A6500 
 2225              	.LASF16:
 2226 06f4 5F5F7569 		.ascii	"__uintptr_t\000"
 2226      6E747074 
 2226      725F7400 
 2227              	.LASF13:
 2228 0700 6C6F6E67 		.ascii	"long unsigned int\000"
 2228      20756E73 
 2228      69676E65 
 2228      6420696E 
 2228      7400
 2229              	.LASF137:
 2230 0712 63686172 		.ascii	"char\000"
 2230      00
 2231              	.LASF127:
 2232 0717 77746D74 		.ascii	"wtmtxp\000"
 2232      787000
 2233              	.LASF8:
 2234 071e 5F5F7569 		.ascii	"__uint16_t\000"
 2234      6E743136 
 2234      5F7400
 2235              	.LASF35:
 2236 0729 74687265 		.ascii	"thread_t\000"
 2236      61645F74 
 2236      00
 2237              	.LASF112:
 2238 0732 62657374 		.ascii	"best\000"
 2238      00
 2239              	.LASF135:
 2240 0737 6D5F6E65 		.ascii	"m_next\000"
 2240      787400
 2241              	.LASF34:
 2242 073e 73797374 		.ascii	"systime_t\000"
 2242      696D655F 
 2242      7400
 2243              	.LASF54:
 2244 0748 705F7265 		.ascii	"p_realprio\000"
 2244      616C7072 
 2244      696F00
 2245              	.LASF71:
 2246 0753 76746675 		.ascii	"vtfunc_t\000"
 2246      6E635F74 
ARM GAS  /var/folders/rz/lph8rwt12pb77g4kvq2dx3yc0000gn/T//ccjcNjm7.s 			page 46


 2246      00
 2247              	.LASF12:
 2248 075c 5F5F7569 		.ascii	"__uint32_t\000"
 2248      6E743332 
 2248      5F7400
 2249              	.LASF84:
 2250 0767 70616E69 		.ascii	"panic_msg\000"
 2250      635F6D73 
 2250      6700
 2251              	.LASF110:
 2252 0771 6F666673 		.ascii	"offset\000"
 2252      657400
 2253              	.LASF99:
 2254 0778 636F6E74 		.ascii	"context\000"
 2254      65787400 
 2255              	.LASF51:
 2256 0780 705F6D73 		.ascii	"p_msg\000"
 2256      6700
 2257              	.LASF78:
 2258 0786 76745F70 		.ascii	"vt_par\000"
 2258      617200
 2259              	.LASF146:
 2260 078d 63665F6F 		.ascii	"cf_off_ctx\000"
 2260      66665F63 
 2260      747800
 2261              	.LASF132:
 2262 0798 63685F6D 		.ascii	"ch_mutex\000"
 2262      75746578 
 2262      00
 2263              	.LASF46:
 2264 07a1 705F7265 		.ascii	"p_refs\000"
 2264      667300
 2265              	.LASF85:
 2266 07a8 6973725F 		.ascii	"isr_cnt\000"
 2266      636E7400 
 2267              	.LASF104:
 2268 07b0 73655F73 		.ascii	"se_state\000"
 2268      74617465 
 2268      00
 2269              	.LASF90:
 2270 07b9 726C6973 		.ascii	"rlist\000"
 2270      7400
 2271              	.LASF17:
 2272 07bf 75696E74 		.ascii	"uint8_t\000"
 2272      385F7400 
 2273              	.LASF57:
 2274 07c7 74687265 		.ascii	"thread_reference_t\000"
 2274      61645F72 
 2274      65666572 
 2274      656E6365 
 2274      5F7400
 2275              	.LASF124:
 2276 07da 77746F62 		.ascii	"wtobjp\000"
 2276      6A7000
 2277              	.LASF42:
 2278 07e1 705F6E61 		.ascii	"p_name\000"
 2278      6D6500
ARM GAS  /var/folders/rz/lph8rwt12pb77g4kvq2dx3yc0000gn/T//ccjcNjm7.s 			page 47


 2279              	.LASF81:
 2280 07e8 76745F73 		.ascii	"vt_systime\000"
 2280      79737469 
 2280      6D6500
 2281              	.LASF87:
 2282 07f3 74726163 		.ascii	"trace_buffer\000"
 2282      655F6275 
 2282      66666572 
 2282      00
 2283              	.LASF141:
 2284 0800 63685F76 		.ascii	"ch_version\000"
 2284      65727369 
 2284      6F6E00
 2285              	.LASF164:
 2286 080b 6D61696E 		.ascii	"main\000"
 2286      00
 2287              	.LASF119:
 2288 0810 6D5F6372 		.ascii	"m_crit_thd\000"
 2288      69745F74 
 2288      686400
 2289              	.LASF134:
 2290 081b 6D5F6F77 		.ascii	"m_owner\000"
 2290      6E657200 
 2291              	.LASF103:
 2292 0823 73655F77 		.ascii	"se_wtobjp\000"
 2292      746F626A 
 2292      7000
 2293              	.LASF138:
 2294 082d 63685F69 		.ascii	"ch_identifier\000"
 2294      64656E74 
 2294      69666965 
 2294      7200
 2295              	.LASF77:
 2296 083b 76745F66 		.ascii	"vt_func\000"
 2296      756E6300 
 2297              		.ident	"GCC: (GNU Tools for Arm Embedded Processors 7-2017-q4-major) 7.2.1 20170904 (release) [ARM
ARM GAS  /var/folders/rz/lph8rwt12pb77g4kvq2dx3yc0000gn/T//ccjcNjm7.s 			page 48


DEFINED SYMBOLS
                            *ABS*:0000000000000000 main.c
/var/folders/rz/lph8rwt12pb77g4kvq2dx3yc0000gn/T//ccjcNjm7.s:18     .text.startup.main:0000000000000000 $t
/var/folders/rz/lph8rwt12pb77g4kvq2dx3yc0000gn/T//ccjcNjm7.s:26     .text.startup.main:0000000000000000 main
/var/folders/rz/lph8rwt12pb77g4kvq2dx3yc0000gn/T//ccjcNjm7.s:73     .text.__stack_chk_fail:0000000000000000 __stack_chk_fail
/var/folders/rz/lph8rwt12pb77g4kvq2dx3yc0000gn/T//ccjcNjm7.s:60     .text.startup.main:0000000000000020 $d
/var/folders/rz/lph8rwt12pb77g4kvq2dx3yc0000gn/T//ccjcNjm7.s:122    .data.__stack_chk_guard:0000000000000000 __stack_chk_guard
/var/folders/rz/lph8rwt12pb77g4kvq2dx3yc0000gn/T//ccjcNjm7.s:65     .text.__stack_chk_fail:0000000000000000 $t
/var/folders/rz/lph8rwt12pb77g4kvq2dx3yc0000gn/T//ccjcNjm7.s:112    .text.__stack_chk_fail:0000000000000024 $d
/var/folders/rz/lph8rwt12pb77g4kvq2dx3yc0000gn/T//ccjcNjm7.s:119    .data.__stack_chk_guard:0000000000000000 $d
/var/folders/rz/lph8rwt12pb77g4kvq2dx3yc0000gn/T//ccjcNjm7.s:125    .rodata.__stack_chk_fail.str1.4:0000000000000000 $d

UNDEFINED SYMBOLS
chSysHalt
