ARM GAS  /var/folders/rz/lph8rwt12pb77g4kvq2dx3yc0000gn/T//cc30SpKW.s 			page 1


   1              		.cpu cortex-m4
   2              		.eabi_attribute 27, 1
   3              		.eabi_attribute 28, 1
   4              		.eabi_attribute 20, 1
   5              		.eabi_attribute 21, 1
   6              		.eabi_attribute 23, 3
   7              		.eabi_attribute 24, 1
   8              		.eabi_attribute 25, 1
   9              		.eabi_attribute 26, 1
  10              		.eabi_attribute 30, 2
  11              		.eabi_attribute 34, 1
  12              		.eabi_attribute 18, 4
  13              		.file	"main.c"
  14              		.text
  15              	.Ltext0:
  16              		.cfi_sections	.debug_frame
  17              		.section	.text.get_leds_statue,"ax",%progbits
  18              		.align	1
  19              		.p2align 4,,15
  20              		.global	get_leds_statue
  21              		.syntax unified
  22              		.thumb
  23              		.thumb_func
  24              		.fpu fpv4-sp-d16
  25              		.type	get_leds_statue, %function
  26              	get_leds_statue:
  27              	.LFB256:
  28              		.file 1 "main.c"
  29              		.loc 1 26 0
  30              		.cfi_startproc
  31              		@ args = 0, pretend = 0, frame = 8
  32              		@ frame_needed = 0, uses_anonymous_args = 0
  33 0000 00B5     		push	{lr}
  34              		.cfi_def_cfa_offset 4
  35              		.cfi_offset 14, -4
  36 0002 074B     		ldr	r3, .L6
  37              		.loc 1 27 0
  38 0004 0749     		ldr	r1, .L6+4
  39              		.loc 1 26 0
  40 0006 1A68     		ldr	r2, [r3]
  41              		.loc 1 28 0
  42 0008 0878     		ldrb	r0, [r1]	@ zero_extendqisi2
  43              		.loc 1 26 0
  44 000a 83B0     		sub	sp, sp, #12
  45              		.cfi_def_cfa_offset 16
  46              		.loc 1 26 0
  47 000c 0192     		str	r2, [sp, #4]
  48              		.loc 1 28 0
  49 000e 019A     		ldr	r2, [sp, #4]
  50 0010 1B68     		ldr	r3, [r3]
  51 0012 9A42     		cmp	r2, r3
  52 0014 02D1     		bne	.L5
  53 0016 03B0     		add	sp, sp, #12
  54              		.cfi_remember_state
  55              		.cfi_def_cfa_offset 4
  56              		@ sp needed
  57 0018 5DF804FB 		ldr	pc, [sp], #4
ARM GAS  /var/folders/rz/lph8rwt12pb77g4kvq2dx3yc0000gn/T//cc30SpKW.s 			page 2


  58              	.L5:
  59              		.cfi_restore_state
  60 001c FFF7FEFF 		bl	__stack_chk_fail
  61              	.LVL0:
  62              	.L7:
  63              		.align	2
  64              	.L6:
  65 0020 00000000 		.word	__stack_chk_guard
  66 0024 00000000 		.word	.LANCHOR0
  67              		.cfi_endproc
  68              	.LFE256:
  69              		.size	get_leds_statue, .-get_leds_statue
  70              		.section	.text.set_leds_statue,"ax",%progbits
  71              		.align	1
  72              		.p2align 4,,15
  73              		.global	set_leds_statue
  74              		.syntax unified
  75              		.thumb
  76              		.thumb_func
  77              		.fpu fpv4-sp-d16
  78              		.type	set_leds_statue, %function
  79              	set_leds_statue:
  80              	.LFB257:
  81              		.loc 1 30 0
  82              		.cfi_startproc
  83              		@ args = 0, pretend = 0, frame = 8
  84              		@ frame_needed = 0, uses_anonymous_args = 0
  85              	.LVL1:
  86 0000 00B5     		push	{lr}
  87              		.cfi_def_cfa_offset 4
  88              		.cfi_offset 14, -4
  89 0002 074B     		ldr	r3, .L12
  90              		.loc 1 31 0
  91 0004 0749     		ldr	r1, .L12+4
  92              		.loc 1 30 0
  93 0006 1A68     		ldr	r2, [r3]
  94              		.loc 1 31 0
  95 0008 0870     		strb	r0, [r1]
  96              		.loc 1 30 0
  97 000a 83B0     		sub	sp, sp, #12
  98              		.cfi_def_cfa_offset 16
  99              		.loc 1 30 0
 100 000c 0192     		str	r2, [sp, #4]
 101              		.loc 1 32 0
 102 000e 019A     		ldr	r2, [sp, #4]
 103 0010 1B68     		ldr	r3, [r3]
 104 0012 9A42     		cmp	r2, r3
 105 0014 02D1     		bne	.L11
 106 0016 03B0     		add	sp, sp, #12
 107              		.cfi_remember_state
 108              		.cfi_def_cfa_offset 4
 109              		@ sp needed
 110 0018 5DF804FB 		ldr	pc, [sp], #4
 111              	.L11:
 112              		.cfi_restore_state
 113 001c FFF7FEFF 		bl	__stack_chk_fail
 114              	.LVL2:
ARM GAS  /var/folders/rz/lph8rwt12pb77g4kvq2dx3yc0000gn/T//cc30SpKW.s 			page 3


 115              	.L13:
 116              		.align	2
 117              	.L12:
 118 0020 00000000 		.word	__stack_chk_guard
 119 0024 00000000 		.word	.LANCHOR0
 120              		.cfi_endproc
 121              	.LFE257:
 122              		.size	set_leds_statue, .-set_leds_statue
 123              		.section	.text.get_toggle_period_rgb_led,"ax",%progbits
 124              		.align	1
 125              		.p2align 4,,15
 126              		.global	get_toggle_period_rgb_led
 127              		.syntax unified
 128              		.thumb
 129              		.thumb_func
 130              		.fpu fpv4-sp-d16
 131              		.type	get_toggle_period_rgb_led, %function
 132              	get_toggle_period_rgb_led:
 133              	.LFB258:
 134              		.loc 1 34 0
 135              		.cfi_startproc
 136              		@ args = 0, pretend = 0, frame = 8
 137              		@ frame_needed = 0, uses_anonymous_args = 0
 138 0000 00B5     		push	{lr}
 139              		.cfi_def_cfa_offset 4
 140              		.cfi_offset 14, -4
 141 0002 074B     		ldr	r3, .L18
 142              		.loc 1 35 0
 143 0004 0749     		ldr	r1, .L18+4
 144              		.loc 1 34 0
 145 0006 1A68     		ldr	r2, [r3]
 146              		.loc 1 36 0
 147 0008 0888     		ldrh	r0, [r1]
 148              		.loc 1 34 0
 149 000a 83B0     		sub	sp, sp, #12
 150              		.cfi_def_cfa_offset 16
 151              		.loc 1 34 0
 152 000c 0192     		str	r2, [sp, #4]
 153              		.loc 1 36 0
 154 000e 019A     		ldr	r2, [sp, #4]
 155 0010 1B68     		ldr	r3, [r3]
 156 0012 9A42     		cmp	r2, r3
 157 0014 02D1     		bne	.L17
 158 0016 03B0     		add	sp, sp, #12
 159              		.cfi_remember_state
 160              		.cfi_def_cfa_offset 4
 161              		@ sp needed
 162 0018 5DF804FB 		ldr	pc, [sp], #4
 163              	.L17:
 164              		.cfi_restore_state
 165 001c FFF7FEFF 		bl	__stack_chk_fail
 166              	.LVL3:
 167              	.L19:
 168              		.align	2
 169              	.L18:
 170 0020 00000000 		.word	__stack_chk_guard
 171 0024 00000000 		.word	.LANCHOR1
ARM GAS  /var/folders/rz/lph8rwt12pb77g4kvq2dx3yc0000gn/T//cc30SpKW.s 			page 4


 172              		.cfi_endproc
 173              	.LFE258:
 174              		.size	get_toggle_period_rgb_led, .-get_toggle_period_rgb_led
 175              		.section	.text.set_toggle_period_rgb_led,"ax",%progbits
 176              		.align	1
 177              		.p2align 4,,15
 178              		.global	set_toggle_period_rgb_led
 179              		.syntax unified
 180              		.thumb
 181              		.thumb_func
 182              		.fpu fpv4-sp-d16
 183              		.type	set_toggle_period_rgb_led, %function
 184              	set_toggle_period_rgb_led:
 185              	.LFB259:
 186              		.loc 1 38 0
 187              		.cfi_startproc
 188              		@ args = 0, pretend = 0, frame = 8
 189              		@ frame_needed = 0, uses_anonymous_args = 0
 190              	.LVL4:
 191 0000 00B5     		push	{lr}
 192              		.cfi_def_cfa_offset 4
 193              		.cfi_offset 14, -4
 194 0002 074B     		ldr	r3, .L24
 195              		.loc 1 39 0
 196 0004 0749     		ldr	r1, .L24+4
 197              		.loc 1 38 0
 198 0006 1A68     		ldr	r2, [r3]
 199              		.loc 1 39 0
 200 0008 0880     		strh	r0, [r1]	@ movhi
 201              		.loc 1 38 0
 202 000a 83B0     		sub	sp, sp, #12
 203              		.cfi_def_cfa_offset 16
 204              		.loc 1 38 0
 205 000c 0192     		str	r2, [sp, #4]
 206              		.loc 1 40 0
 207 000e 019A     		ldr	r2, [sp, #4]
 208 0010 1B68     		ldr	r3, [r3]
 209 0012 9A42     		cmp	r2, r3
 210 0014 02D1     		bne	.L23
 211 0016 03B0     		add	sp, sp, #12
 212              		.cfi_remember_state
 213              		.cfi_def_cfa_offset 4
 214              		@ sp needed
 215 0018 5DF804FB 		ldr	pc, [sp], #4
 216              	.L23:
 217              		.cfi_restore_state
 218 001c FFF7FEFF 		bl	__stack_chk_fail
 219              	.LVL5:
 220              	.L25:
 221              		.align	2
 222              	.L24:
 223 0020 00000000 		.word	__stack_chk_guard
 224 0024 00000000 		.word	.LANCHOR1
 225              		.cfi_endproc
 226              	.LFE259:
 227              		.size	set_toggle_period_rgb_led, .-set_toggle_period_rgb_led
 228              		.section	.text.get_led_color,"ax",%progbits
ARM GAS  /var/folders/rz/lph8rwt12pb77g4kvq2dx3yc0000gn/T//cc30SpKW.s 			page 5


 229              		.align	1
 230              		.p2align 4,,15
 231              		.global	get_led_color
 232              		.syntax unified
 233              		.thumb
 234              		.thumb_func
 235              		.fpu fpv4-sp-d16
 236              		.type	get_led_color, %function
 237              	get_led_color:
 238              	.LFB260:
 239              		.loc 1 42 0
 240              		.cfi_startproc
 241              		@ args = 0, pretend = 0, frame = 8
 242              		@ frame_needed = 0, uses_anonymous_args = 0
 243 0000 00B5     		push	{lr}
 244              		.cfi_def_cfa_offset 4
 245              		.cfi_offset 14, -4
 246 0002 074B     		ldr	r3, .L30
 247              		.loc 1 43 0
 248 0004 0749     		ldr	r1, .L30+4
 249              		.loc 1 42 0
 250 0006 1A68     		ldr	r2, [r3]
 251              		.loc 1 44 0
 252 0008 0878     		ldrb	r0, [r1]	@ zero_extendqisi2
 253              		.loc 1 42 0
 254 000a 83B0     		sub	sp, sp, #12
 255              		.cfi_def_cfa_offset 16
 256              		.loc 1 42 0
 257 000c 0192     		str	r2, [sp, #4]
 258              		.loc 1 44 0
 259 000e 019A     		ldr	r2, [sp, #4]
 260 0010 1B68     		ldr	r3, [r3]
 261 0012 9A42     		cmp	r2, r3
 262 0014 02D1     		bne	.L29
 263 0016 03B0     		add	sp, sp, #12
 264              		.cfi_remember_state
 265              		.cfi_def_cfa_offset 4
 266              		@ sp needed
 267 0018 5DF804FB 		ldr	pc, [sp], #4
 268              	.L29:
 269              		.cfi_restore_state
 270 001c FFF7FEFF 		bl	__stack_chk_fail
 271              	.LVL6:
 272              	.L31:
 273              		.align	2
 274              	.L30:
 275 0020 00000000 		.word	__stack_chk_guard
 276 0024 00000000 		.word	.LANCHOR2
 277              		.cfi_endproc
 278              	.LFE260:
 279              		.size	get_led_color, .-get_led_color
 280              		.section	.text.set_led_color,"ax",%progbits
 281              		.align	1
 282              		.p2align 4,,15
 283              		.global	set_led_color
 284              		.syntax unified
 285              		.thumb
ARM GAS  /var/folders/rz/lph8rwt12pb77g4kvq2dx3yc0000gn/T//cc30SpKW.s 			page 6


 286              		.thumb_func
 287              		.fpu fpv4-sp-d16
 288              		.type	set_led_color, %function
 289              	set_led_color:
 290              	.LFB261:
 291              		.loc 1 46 0
 292              		.cfi_startproc
 293              		@ args = 0, pretend = 0, frame = 8
 294              		@ frame_needed = 0, uses_anonymous_args = 0
 295              	.LVL7:
 296 0000 00B5     		push	{lr}
 297              		.cfi_def_cfa_offset 4
 298              		.cfi_offset 14, -4
 299 0002 074B     		ldr	r3, .L36
 300              		.loc 1 47 0
 301 0004 0749     		ldr	r1, .L36+4
 302              		.loc 1 46 0
 303 0006 1A68     		ldr	r2, [r3]
 304              		.loc 1 47 0
 305 0008 0870     		strb	r0, [r1]
 306              		.loc 1 46 0
 307 000a 83B0     		sub	sp, sp, #12
 308              		.cfi_def_cfa_offset 16
 309              		.loc 1 46 0
 310 000c 0192     		str	r2, [sp, #4]
 311              		.loc 1 48 0
 312 000e 019A     		ldr	r2, [sp, #4]
 313 0010 1B68     		ldr	r3, [r3]
 314 0012 9A42     		cmp	r2, r3
 315 0014 02D1     		bne	.L35
 316 0016 03B0     		add	sp, sp, #12
 317              		.cfi_remember_state
 318              		.cfi_def_cfa_offset 4
 319              		@ sp needed
 320 0018 5DF804FB 		ldr	pc, [sp], #4
 321              	.L35:
 322              		.cfi_restore_state
 323 001c FFF7FEFF 		bl	__stack_chk_fail
 324              	.LVL8:
 325              	.L37:
 326              		.align	2
 327              	.L36:
 328 0020 00000000 		.word	__stack_chk_guard
 329 0024 00000000 		.word	.LANCHOR2
 330              		.cfi_endproc
 331              	.LFE261:
 332              		.size	set_led_color, .-set_led_color
 333              		.section	.text.turn_on_led,"ax",%progbits
 334              		.align	1
 335              		.p2align 4,,15
 336              		.global	turn_on_led
 337              		.syntax unified
 338              		.thumb
 339              		.thumb_func
 340              		.fpu fpv4-sp-d16
 341              		.type	turn_on_led, %function
 342              	turn_on_led:
ARM GAS  /var/folders/rz/lph8rwt12pb77g4kvq2dx3yc0000gn/T//cc30SpKW.s 			page 7


 343              	.LFB262:
 344              		.loc 1 51 0
 345              		.cfi_startproc
 346              		@ args = 0, pretend = 0, frame = 8
 347              		@ frame_needed = 0, uses_anonymous_args = 0
 348 0000 10B5     		push	{r4, lr}
 349              		.cfi_def_cfa_offset 8
 350              		.cfi_offset 4, -8
 351              		.cfi_offset 14, -4
 352              	.LBB16:
 353              	.LBB17:
 354              		.loc 1 43 0
 355 0002 594B     		ldr	r3, .L55
 356              	.LBE17:
 357              	.LBE16:
 358              		.loc 1 51 0
 359 0004 594C     		ldr	r4, .L55+4
 360              		.loc 1 52 0
 361 0006 1B78     		ldrb	r3, [r3]	@ zero_extendqisi2
 362              		.loc 1 51 0
 363 0008 2268     		ldr	r2, [r4]
 364 000a 82B0     		sub	sp, sp, #8
 365              		.cfi_def_cfa_offset 16
 366              		.loc 1 51 0
 367 000c 0192     		str	r2, [sp, #4]
 368              		.loc 1 52 0
 369 000e 042B     		cmp	r3, #4
 370 0010 00F2A180 		bhi	.L38
 371 0014 DFE803F0 		tbb	[pc, r3]
 372              	.L41:
 373 0018 23       		.byte	(.L40-.L41)/2
 374 0019 42       		.byte	(.L42-.L41)/2
 375 001a 61       		.byte	(.L43-.L41)/2
 376 001b 80       		.byte	(.L44-.L41)/2
 377 001c 03       		.byte	(.L45-.L41)/2
 378 001d 00       		.p2align 1
 379              	.L45:
 380              		.loc 1 54 0
 381 001e 0023     		movs	r3, #0
 382 0020 1946     		mov	r1, r3
 383 0022 1846     		mov	r0, r3
 384 0024 FF22     		movs	r2, #255
 385 0026 FFF7FEFF 		bl	set_rgb_led
 386              	.LVL9:
 387              		.loc 1 55 0
 388 002a 0023     		movs	r3, #0
 389 002c 1946     		mov	r1, r3
 390 002e FF22     		movs	r2, #255
 391 0030 0120     		movs	r0, #1
 392 0032 FFF7FEFF 		bl	set_rgb_led
 393              	.LVL10:
 394              		.loc 1 56 0
 395 0036 0023     		movs	r3, #0
 396 0038 1946     		mov	r1, r3
 397 003a FF22     		movs	r2, #255
 398 003c 0220     		movs	r0, #2
 399 003e FFF7FEFF 		bl	set_rgb_led
ARM GAS  /var/folders/rz/lph8rwt12pb77g4kvq2dx3yc0000gn/T//cc30SpKW.s 			page 8


 400              	.LVL11:
 401              		.loc 1 57 0
 402 0042 019A     		ldr	r2, [sp, #4]
 403 0044 2368     		ldr	r3, [r4]
 404 0046 9A42     		cmp	r2, r3
 405 0048 40F08B80 		bne	.L54
 406 004c 0023     		movs	r3, #0
 407 004e 1946     		mov	r1, r3
 408 0050 FF22     		movs	r2, #255
 409              		.loc 1 81 0
 410 0052 0320     		movs	r0, #3
 411              		.loc 1 84 0
 412 0054 02B0     		add	sp, sp, #8
 413              		.cfi_remember_state
 414              		.cfi_def_cfa_offset 8
 415              		@ sp needed
 416 0056 BDE81040 		pop	{r4, lr}
 417              		.cfi_restore 14
 418              		.cfi_restore 4
 419              		.cfi_def_cfa_offset 0
 420              		.loc 1 81 0
 421 005a FFF7FEBF 		b	set_rgb_led
 422              	.LVL12:
 423              	.L40:
 424              		.cfi_restore_state
 425              		.loc 1 60 0
 426 005e FF23     		movs	r3, #255
 427 0060 1A46     		mov	r2, r3
 428 0062 1946     		mov	r1, r3
 429 0064 0020     		movs	r0, #0
 430 0066 FFF7FEFF 		bl	set_rgb_led
 431              	.LVL13:
 432              		.loc 1 61 0
 433 006a FF23     		movs	r3, #255
 434 006c 1A46     		mov	r2, r3
 435 006e 1946     		mov	r1, r3
 436 0070 0120     		movs	r0, #1
 437 0072 FFF7FEFF 		bl	set_rgb_led
 438              	.LVL14:
 439              		.loc 1 62 0
 440 0076 FF23     		movs	r3, #255
 441 0078 1A46     		mov	r2, r3
 442 007a 1946     		mov	r1, r3
 443 007c 0220     		movs	r0, #2
 444 007e FFF7FEFF 		bl	set_rgb_led
 445              	.LVL15:
 446              		.loc 1 63 0
 447 0082 019A     		ldr	r2, [sp, #4]
 448 0084 2368     		ldr	r3, [r4]
 449 0086 9A42     		cmp	r2, r3
 450 0088 6BD1     		bne	.L54
 451 008a FF23     		movs	r3, #255
 452 008c 1A46     		mov	r2, r3
 453 008e 1946     		mov	r1, r3
 454              		.loc 1 81 0
 455 0090 0320     		movs	r0, #3
 456              		.loc 1 84 0
ARM GAS  /var/folders/rz/lph8rwt12pb77g4kvq2dx3yc0000gn/T//cc30SpKW.s 			page 9


 457 0092 02B0     		add	sp, sp, #8
 458              		.cfi_remember_state
 459              		.cfi_def_cfa_offset 8
 460              		@ sp needed
 461 0094 BDE81040 		pop	{r4, lr}
 462              		.cfi_restore 14
 463              		.cfi_restore 4
 464              		.cfi_def_cfa_offset 0
 465              		.loc 1 81 0
 466 0098 FFF7FEBF 		b	set_rgb_led
 467              	.LVL16:
 468              	.L42:
 469              		.cfi_restore_state
 470              		.loc 1 72 0
 471 009c 0023     		movs	r3, #0
 472 009e FF22     		movs	r2, #255
 473 00a0 1846     		mov	r0, r3
 474 00a2 1146     		mov	r1, r2
 475 00a4 FFF7FEFF 		bl	set_rgb_led
 476              	.LVL17:
 477              		.loc 1 73 0
 478 00a8 FF22     		movs	r2, #255
 479 00aa 1146     		mov	r1, r2
 480 00ac 0023     		movs	r3, #0
 481 00ae 0120     		movs	r0, #1
 482 00b0 FFF7FEFF 		bl	set_rgb_led
 483              	.LVL18:
 484              		.loc 1 74 0
 485 00b4 FF22     		movs	r2, #255
 486 00b6 1146     		mov	r1, r2
 487 00b8 0023     		movs	r3, #0
 488 00ba 0220     		movs	r0, #2
 489 00bc FFF7FEFF 		bl	set_rgb_led
 490              	.LVL19:
 491              		.loc 1 75 0
 492 00c0 019A     		ldr	r2, [sp, #4]
 493 00c2 2368     		ldr	r3, [r4]
 494 00c4 9A42     		cmp	r2, r3
 495 00c6 4CD1     		bne	.L54
 496 00c8 FF22     		movs	r2, #255
 497 00ca 1146     		mov	r1, r2
 498 00cc 0023     		movs	r3, #0
 499              		.loc 1 81 0
 500 00ce 0320     		movs	r0, #3
 501              		.loc 1 84 0
 502 00d0 02B0     		add	sp, sp, #8
 503              		.cfi_remember_state
 504              		.cfi_def_cfa_offset 8
 505              		@ sp needed
 506 00d2 BDE81040 		pop	{r4, lr}
 507              		.cfi_restore 14
 508              		.cfi_restore 4
 509              		.cfi_def_cfa_offset 0
 510              		.loc 1 81 0
 511 00d6 FFF7FEBF 		b	set_rgb_led
 512              	.LVL20:
 513              	.L43:
ARM GAS  /var/folders/rz/lph8rwt12pb77g4kvq2dx3yc0000gn/T//cc30SpKW.s 			page 10


 514              		.cfi_restore_state
 515              		.loc 1 66 0
 516 00da 0022     		movs	r2, #0
 517 00dc 1146     		mov	r1, r2
 518 00de 1046     		mov	r0, r2
 519 00e0 FF23     		movs	r3, #255
 520 00e2 FFF7FEFF 		bl	set_rgb_led
 521              	.LVL21:
 522              		.loc 1 67 0
 523 00e6 0022     		movs	r2, #0
 524 00e8 1146     		mov	r1, r2
 525 00ea FF23     		movs	r3, #255
 526 00ec 0120     		movs	r0, #1
 527 00ee FFF7FEFF 		bl	set_rgb_led
 528              	.LVL22:
 529              		.loc 1 68 0
 530 00f2 0022     		movs	r2, #0
 531 00f4 1146     		mov	r1, r2
 532 00f6 FF23     		movs	r3, #255
 533 00f8 0220     		movs	r0, #2
 534 00fa FFF7FEFF 		bl	set_rgb_led
 535              	.LVL23:
 536              		.loc 1 69 0
 537 00fe 019A     		ldr	r2, [sp, #4]
 538 0100 2368     		ldr	r3, [r4]
 539 0102 9A42     		cmp	r2, r3
 540 0104 2DD1     		bne	.L54
 541 0106 0022     		movs	r2, #0
 542 0108 1146     		mov	r1, r2
 543 010a FF23     		movs	r3, #255
 544              		.loc 1 81 0
 545 010c 0320     		movs	r0, #3
 546              		.loc 1 84 0
 547 010e 02B0     		add	sp, sp, #8
 548              		.cfi_remember_state
 549              		.cfi_def_cfa_offset 8
 550              		@ sp needed
 551 0110 BDE81040 		pop	{r4, lr}
 552              		.cfi_restore 14
 553              		.cfi_restore 4
 554              		.cfi_def_cfa_offset 0
 555              		.loc 1 81 0
 556 0114 FFF7FEBF 		b	set_rgb_led
 557              	.LVL24:
 558              	.L44:
 559              		.cfi_restore_state
 560              		.loc 1 78 0
 561 0118 FF23     		movs	r3, #255
 562 011a 0022     		movs	r2, #0
 563 011c 1946     		mov	r1, r3
 564 011e 1046     		mov	r0, r2
 565 0120 FFF7FEFF 		bl	set_rgb_led
 566              	.LVL25:
 567              		.loc 1 79 0
 568 0124 FF23     		movs	r3, #255
 569 0126 1946     		mov	r1, r3
 570 0128 0022     		movs	r2, #0
ARM GAS  /var/folders/rz/lph8rwt12pb77g4kvq2dx3yc0000gn/T//cc30SpKW.s 			page 11


 571 012a 0120     		movs	r0, #1
 572 012c FFF7FEFF 		bl	set_rgb_led
 573              	.LVL26:
 574              		.loc 1 80 0
 575 0130 FF23     		movs	r3, #255
 576 0132 1946     		mov	r1, r3
 577 0134 0022     		movs	r2, #0
 578 0136 0220     		movs	r0, #2
 579 0138 FFF7FEFF 		bl	set_rgb_led
 580              	.LVL27:
 581              		.loc 1 81 0
 582 013c 019A     		ldr	r2, [sp, #4]
 583 013e 2368     		ldr	r3, [r4]
 584 0140 9A42     		cmp	r2, r3
 585 0142 0ED1     		bne	.L54
 586 0144 FF23     		movs	r3, #255
 587 0146 1946     		mov	r1, r3
 588 0148 0022     		movs	r2, #0
 589 014a 0320     		movs	r0, #3
 590              		.loc 1 84 0
 591 014c 02B0     		add	sp, sp, #8
 592              		.cfi_remember_state
 593              		.cfi_def_cfa_offset 8
 594              		@ sp needed
 595 014e BDE81040 		pop	{r4, lr}
 596              		.cfi_restore 14
 597              		.cfi_restore 4
 598              		.cfi_def_cfa_offset 0
 599              		.loc 1 81 0
 600 0152 FFF7FEBF 		b	set_rgb_led
 601              	.LVL28:
 602              	.L38:
 603              		.loc 1 84 0
 604 0156 019A     		ldr	r2, [sp, #4]
 605 0158 2368     		ldr	r3, [r4]
 606 015a 9A42     		cmp	r2, r3
 607 015c 01D1     		bne	.L54
 608 015e 02B0     		add	sp, sp, #8
 609              		@ sp needed
 610 0160 10BD     		pop	{r4, pc}
 611              	.L54:
 612              		.cfi_restore_state
 613 0162 FFF7FEFF 		bl	__stack_chk_fail
 614              	.LVL29:
 615              	.L56:
 616 0166 00BF     		.align	2
 617              	.L55:
 618 0168 00000000 		.word	.LANCHOR2
 619 016c 00000000 		.word	__stack_chk_guard
 620              		.cfi_endproc
 621              	.LFE262:
 622              		.size	turn_on_led, .-turn_on_led
 623              		.section	.text.turn_off_led,"ax",%progbits
 624              		.align	1
 625              		.p2align 4,,15
 626              		.global	turn_off_led
 627              		.syntax unified
ARM GAS  /var/folders/rz/lph8rwt12pb77g4kvq2dx3yc0000gn/T//cc30SpKW.s 			page 12


 628              		.thumb
 629              		.thumb_func
 630              		.fpu fpv4-sp-d16
 631              		.type	turn_off_led, %function
 632              	turn_off_led:
 633              	.LFB263:
 634              		.loc 1 86 0
 635              		.cfi_startproc
 636              		@ args = 0, pretend = 0, frame = 8
 637              		@ frame_needed = 0, uses_anonymous_args = 0
 638 0000 10B5     		push	{r4, lr}
 639              		.cfi_def_cfa_offset 8
 640              		.cfi_offset 4, -8
 641              		.cfi_offset 14, -4
 642 0002 124C     		ldr	r4, .L62
 643 0004 82B0     		sub	sp, sp, #8
 644              		.cfi_def_cfa_offset 16
 645              		.loc 1 87 0
 646 0006 0023     		movs	r3, #0
 647              		.loc 1 86 0
 648 0008 2268     		ldr	r2, [r4]
 649 000a 0192     		str	r2, [sp, #4]
 650              		.loc 1 87 0
 651 000c 1946     		mov	r1, r3
 652 000e 1A46     		mov	r2, r3
 653 0010 1846     		mov	r0, r3
 654 0012 FFF7FEFF 		bl	set_rgb_led
 655              	.LVL30:
 656              		.loc 1 88 0
 657 0016 0023     		movs	r3, #0
 658 0018 1A46     		mov	r2, r3
 659 001a 1946     		mov	r1, r3
 660 001c 0120     		movs	r0, #1
 661 001e FFF7FEFF 		bl	set_rgb_led
 662              	.LVL31:
 663              		.loc 1 89 0
 664 0022 0023     		movs	r3, #0
 665 0024 1A46     		mov	r2, r3
 666 0026 1946     		mov	r1, r3
 667 0028 0220     		movs	r0, #2
 668 002a FFF7FEFF 		bl	set_rgb_led
 669              	.LVL32:
 670              		.loc 1 90 0
 671 002e 019A     		ldr	r2, [sp, #4]
 672 0030 2368     		ldr	r3, [r4]
 673 0032 9A42     		cmp	r2, r3
 674 0034 08D1     		bne	.L61
 675 0036 0023     		movs	r3, #0
 676 0038 1A46     		mov	r2, r3
 677 003a 1946     		mov	r1, r3
 678 003c 0320     		movs	r0, #3
 679              		.loc 1 91 0
 680 003e 02B0     		add	sp, sp, #8
 681              		.cfi_remember_state
 682              		.cfi_def_cfa_offset 8
 683              		@ sp needed
 684 0040 BDE81040 		pop	{r4, lr}
ARM GAS  /var/folders/rz/lph8rwt12pb77g4kvq2dx3yc0000gn/T//cc30SpKW.s 			page 13


 685              		.cfi_restore 14
 686              		.cfi_restore 4
 687              		.cfi_def_cfa_offset 0
 688              		.loc 1 90 0
 689 0044 FFF7FEBF 		b	set_rgb_led
 690              	.LVL33:
 691              	.L61:
 692              		.cfi_restore_state
 693 0048 FFF7FEFF 		bl	__stack_chk_fail
 694              	.LVL34:
 695              	.L63:
 696              		.align	2
 697              	.L62:
 698 004c 00000000 		.word	__stack_chk_guard
 699              		.cfi_endproc
 700              	.LFE263:
 701              		.size	turn_off_led, .-turn_off_led
 702              		.section	.text.toggle_led,"ax",%progbits
 703              		.align	1
 704              		.p2align 4,,15
 705              		.global	toggle_led
 706              		.syntax unified
 707              		.thumb
 708              		.thumb_func
 709              		.fpu fpv4-sp-d16
 710              		.type	toggle_led, %function
 711              	toggle_led:
 712              	.LFB265:
 713              		.loc 1 105 0
 714              		.cfi_startproc
 715              		@ args = 0, pretend = 0, frame = 8
 716              		@ frame_needed = 0, uses_anonymous_args = 0
 717 0000 F0B5     		push	{r4, r5, r6, r7, lr}
 718              		.cfi_def_cfa_offset 20
 719              		.cfi_offset 4, -20
 720              		.cfi_offset 5, -16
 721              		.cfi_offset 6, -12
 722              		.cfi_offset 7, -8
 723              		.cfi_offset 14, -4
 724 0002 144D     		ldr	r5, .L69
 725              	.LBB18:
 726              	.LBB19:
 727              		.loc 1 35 0
 728 0004 144F     		ldr	r7, .L69+4
 729              	.LBE19:
 730              	.LBE18:
 731              		.loc 1 105 0
 732 0006 2B68     		ldr	r3, [r5]
 733              		.loc 1 107 0
 734 0008 144E     		ldr	r6, .L69+8
 735              		.loc 1 105 0
 736 000a 83B0     		sub	sp, sp, #12
 737              		.cfi_def_cfa_offset 32
 738              		.loc 1 107 0
 739 000c 4FF47A74 		mov	r4, #1000
 740              		.loc 1 105 0
 741 0010 0193     		str	r3, [sp, #4]
ARM GAS  /var/folders/rz/lph8rwt12pb77g4kvq2dx3yc0000gn/T//cc30SpKW.s 			page 14


 742              		.loc 1 106 0
 743 0012 FFF7FEFF 		bl	turn_on_led
 744              	.LVL35:
 745              		.loc 1 107 0
 746 0016 3888     		ldrh	r0, [r7]
 747 0018 04FB00F0 		mul	r0, r4, r0
 748 001c 00F2E730 		addw	r0, r0, #999
 749 0020 A6FB0030 		umull	r3, r0, r6, r0
 750 0024 8009     		lsrs	r0, r0, #6
 751 0026 FFF7FEFF 		bl	chThdSleep
 752              	.LVL36:
 753              		.loc 1 108 0
 754 002a FFF7FEFF 		bl	turn_off_led
 755              	.LVL37:
 756              		.loc 1 109 0
 757 002e 019A     		ldr	r2, [sp, #4]
 758 0030 2B68     		ldr	r3, [r5]
 759 0032 9A42     		cmp	r2, r3
 760 0034 0CD1     		bne	.L68
 761 0036 3888     		ldrh	r0, [r7]
 762 0038 04FB00F0 		mul	r0, r4, r0
 763 003c 00F2E730 		addw	r0, r0, #999
 764 0040 A6FB0030 		umull	r3, r0, r6, r0
 765 0044 8009     		lsrs	r0, r0, #6
 766              		.loc 1 110 0
 767 0046 03B0     		add	sp, sp, #12
 768              		.cfi_remember_state
 769              		.cfi_def_cfa_offset 20
 770              		@ sp needed
 771 0048 BDE8F040 		pop	{r4, r5, r6, r7, lr}
 772              		.cfi_restore 14
 773              		.cfi_restore 7
 774              		.cfi_restore 6
 775              		.cfi_restore 5
 776              		.cfi_restore 4
 777              		.cfi_def_cfa_offset 0
 778              		.loc 1 109 0
 779 004c FFF7FEBF 		b	chThdSleep
 780              	.LVL38:
 781              	.L68:
 782              		.cfi_restore_state
 783 0050 FFF7FEFF 		bl	__stack_chk_fail
 784              	.LVL39:
 785              	.L70:
 786              		.align	2
 787              	.L69:
 788 0054 00000000 		.word	__stack_chk_guard
 789 0058 00000000 		.word	.LANCHOR1
 790 005c D34D6210 		.word	274877907
 791              		.cfi_endproc
 792              	.LFE265:
 793              		.size	toggle_led, .-toggle_led
 794              		.section	.text.startup.main,"ax",%progbits
 795              		.align	1
 796              		.p2align 4,,15
 797              		.global	main
 798              		.syntax unified
ARM GAS  /var/folders/rz/lph8rwt12pb77g4kvq2dx3yc0000gn/T//cc30SpKW.s 			page 15


 799              		.thumb
 800              		.thumb_func
 801              		.fpu fpv4-sp-d16
 802              		.type	main, %function
 803              	main:
 804              	.LFB266:
 805              		.loc 1 114 0
 806              		.cfi_startproc
 807              		@ Volatile: function does not return.
 808              		@ args = 0, pretend = 0, frame = 8
 809              		@ frame_needed = 0, uses_anonymous_args = 0
 810 0000 80B5     		push	{r7, lr}
 811              		.cfi_def_cfa_offset 8
 812              		.cfi_offset 7, -8
 813              		.cfi_offset 14, -4
 814 0002 204B     		ldr	r3, .L79
 815 0004 204F     		ldr	r7, .L79+4
 816 0006 1B68     		ldr	r3, [r3]
 817 0008 204E     		ldr	r6, .L79+8
 818              		.loc 1 162 0
 819 000a 214D     		ldr	r5, .L79+12
 820              		.loc 1 114 0
 821 000c 82B0     		sub	sp, sp, #8
 822              		.cfi_def_cfa_offset 16
 823              		.loc 1 162 0
 824 000e 4FF47A74 		mov	r4, #1000
 825              		.loc 1 114 0
 826 0012 0193     		str	r3, [sp, #4]
 827              		.loc 1 116 0
 828 0014 FFF7FEFF 		bl	halInit
 829              	.LVL40:
 830              		.loc 1 117 0
 831 0018 FFF7FEFF 		bl	chSysInit
 832              	.LVL41:
 833              		.loc 1 118 0
 834 001c FFF7FEFF 		bl	mpu_init
 835              	.LVL42:
 836              	.LBB20:
 837              	.LBB21:
 838              		.loc 1 102 0
 839 0020 1C49     		ldr	r1, .L79+16
 840 0022 1D48     		ldr	r0, .L79+20
 841 0024 FFF7FEFF 		bl	sdStart
 842              	.LVL43:
 843              	.LBE21:
 844              	.LBE20:
 845              		.loc 1 123 0
 846 0028 FFF7FEFF 		bl	usb_start
 847              	.LVL44:
 848              		.loc 1 126 0
 849 002c FFF7FEFF 		bl	spi_comm_start
 850              	.LVL45:
 851              		.loc 1 129 0
 852 0030 FFF7FEFF 		bl	dac_start
 853              	.LVL46:
 854              		.loc 1 132 0
 855 0034 FFF7FEFF 		bl	playMelodyStart
ARM GAS  /var/folders/rz/lph8rwt12pb77g4kvq2dx3yc0000gn/T//cc30SpKW.s 			page 16


 856              	.LVL47:
 857              		.loc 1 135 0
 858 0038 FFF7FEFF 		bl	dcmi_start
 859              	.LVL48:
 860              		.loc 1 136 0
 861 003c FFF7FEFF 		bl	po8030_start
 862              	.LVL49:
 863              		.loc 1 139 0
 864 0040 FFF7FEFF 		bl	motors_init
 865              	.LVL50:
 866              		.loc 1 142 0
 867 0044 154A     		ldr	r2, .L79+24
 868 0046 1649     		ldr	r1, .L79+28
 869 0048 1648     		ldr	r0, .L79+32
 870 004a FFF7FEFF 		bl	messagebus_init
 871              	.LVL51:
 872              		.loc 1 145 0
 873 004e FFF7FEFF 		bl	proximity_start
 874              	.LVL52:
 875              		.loc 1 146 0
 876 0052 FFF7FEFF 		bl	calibrate_ir
 877              	.LVL53:
 878              		.loc 1 151 0
 879 0056 FFF7FEFF 		bl	find_path_to_exit_start
 880              	.LVL54:
 881              		.loc 1 154 0
 882 005a FFF7FEFF 		bl	manage_camera_start
 883              	.LVL55:
 884 005e 0BE0     		b	.L72
 885              	.L78:
 886              		.loc 1 158 0
 887 0060 FFF7FEFF 		bl	toggle_led
 888              	.LVL56:
 889              	.L77:
 890              		.loc 1 162 0
 891 0064 3088     		ldrh	r0, [r6]
 892 0066 04FB00F0 		mul	r0, r4, r0
 893 006a 00F2E730 		addw	r0, r0, #999
 894 006e A5FB0030 		umull	r3, r0, r5, r0
 895 0072 8009     		lsrs	r0, r0, #6
 896 0074 FFF7FEFF 		bl	chThdSleep
 897              	.LVL57:
 898              	.L72:
 899              		.loc 1 157 0
 900 0078 3B78     		ldrb	r3, [r7]	@ zero_extendqisi2
 901 007a 002B     		cmp	r3, #0
 902 007c F0D1     		bne	.L78
 903              		.loc 1 161 0
 904 007e FFF7FEFF 		bl	turn_off_led
 905              	.LVL58:
 906 0082 EFE7     		b	.L77
 907              	.L80:
 908              		.align	2
 909              	.L79:
 910 0084 00000000 		.word	__stack_chk_guard
 911 0088 00000000 		.word	.LANCHOR0
 912 008c 00000000 		.word	.LANCHOR1
ARM GAS  /var/folders/rz/lph8rwt12pb77g4kvq2dx3yc0000gn/T//cc30SpKW.s 			page 17


 913 0090 D34D6210 		.word	274877907
 914 0094 00000000 		.word	.LANCHOR3
 915 0098 00000000 		.word	SD3
 916 009c 00000000 		.word	.LANCHOR4
 917 00a0 00000000 		.word	.LANCHOR5
 918 00a4 00000000 		.word	.LANCHOR6
 919              		.cfi_endproc
 920              	.LFE266:
 921              		.size	main, .-main
 922              		.section	.text.__stack_chk_fail,"ax",%progbits
 923              		.align	1
 924              		.p2align 4,,15
 925              		.global	__stack_chk_fail
 926              		.syntax unified
 927              		.thumb
 928              		.thumb_func
 929              		.fpu fpv4-sp-d16
 930              		.type	__stack_chk_fail, %function
 931              	__stack_chk_fail:
 932              	.LFB267:
 933              		.loc 1 173 0
 934              		.cfi_startproc
 935              		@ args = 0, pretend = 0, frame = 8
 936              		@ frame_needed = 0, uses_anonymous_args = 0
 937 0000 00B5     		push	{lr}
 938              		.cfi_def_cfa_offset 4
 939              		.cfi_offset 14, -4
 940 0002 084B     		ldr	r3, .L86
 941 0004 83B0     		sub	sp, sp, #12
 942              		.cfi_def_cfa_offset 16
 943              		.loc 1 173 0
 944 0006 1A68     		ldr	r2, [r3]
 945 0008 0192     		str	r2, [sp, #4]
 946              		.loc 1 174 0
 947 000a 019A     		ldr	r2, [sp, #4]
 948 000c 1B68     		ldr	r3, [r3]
 949 000e 9A42     		cmp	r2, r3
 950 0010 05D1     		bne	.L85
 951 0012 0548     		ldr	r0, .L86+4
 952              		.loc 1 175 0
 953 0014 03B0     		add	sp, sp, #12
 954              		.cfi_remember_state
 955              		.cfi_def_cfa_offset 4
 956              		@ sp needed
 957 0016 5DF804EB 		ldr	lr, [sp], #4
 958              		.cfi_restore 14
 959              		.cfi_def_cfa_offset 0
 960              		.loc 1 174 0
 961 001a FFF7FEBF 		b	chSysHalt
 962              	.LVL59:
 963              	.L85:
 964              		.cfi_restore_state
 965 001e FFF7FEFF 		bl	__stack_chk_fail
 966              	.LVL60:
 967              	.L87:
 968 0022 00BF     		.align	2
 969              	.L86:
ARM GAS  /var/folders/rz/lph8rwt12pb77g4kvq2dx3yc0000gn/T//cc30SpKW.s 			page 18


 970 0024 00000000 		.word	__stack_chk_guard
 971 0028 00000000 		.word	.LC0
 972              		.cfi_endproc
 973              	.LFE267:
 974              		.size	__stack_chk_fail, .-__stack_chk_fail
 975              		.global	__stack_chk_guard
 976              		.global	bus_condvar
 977              		.global	bus_lock
 978              		.global	bus
 979              		.section	.bss.bus,"aw",%nobits
 980              		.align	2
 981              		.set	.LANCHOR6,. + 0
 982              		.type	bus, %object
 983              		.size	bus, 12
 984              	bus:
 985 0000 00000000 		.space	12
 985      00000000 
 985      00000000 
 986              		.section	.data.__stack_chk_guard,"aw",%progbits
 987              		.align	2
 988              		.type	__stack_chk_guard, %object
 989              		.size	__stack_chk_guard, 4
 990              	__stack_chk_guard:
 991 0000 96E3DEE2 		.word	-488709226
 992              		.section	.data.bus_condvar,"aw",%progbits
 993              		.align	2
 994              		.set	.LANCHOR4,. + 0
 995              		.type	bus_condvar, %object
 996              		.size	bus_condvar, 8
 997              	bus_condvar:
 998 0000 00000000 		.word	bus_condvar
 999 0004 00000000 		.word	bus_condvar
 1000              		.section	.data.bus_lock,"aw",%progbits
 1001              		.align	2
 1002              		.set	.LANCHOR5,. + 0
 1003              		.type	bus_lock, %object
 1004              		.size	bus_lock, 20
 1005              	bus_lock:
 1006 0000 00000000 		.word	bus_lock
 1007 0004 00000000 		.word	bus_lock
 1008 0008 00000000 		.word	0
 1009 000c 00000000 		.word	0
 1010 0010 00000000 		.word	0
 1011              		.section	.data.led_color,"aw",%progbits
 1012              		.set	.LANCHOR2,. + 0
 1013              		.type	led_color, %object
 1014              		.size	led_color, 1
 1015              	led_color:
 1016 0000 01       		.byte	1
 1017              		.section	.data.leds_on,"aw",%progbits
 1018              		.set	.LANCHOR0,. + 0
 1019              		.type	leds_on, %object
 1020              		.size	leds_on, 1
 1021              	leds_on:
 1022 0000 01       		.byte	1
 1023              		.section	.data.ser_cfg.10802,"aw",%progbits
 1024              		.align	2
ARM GAS  /var/folders/rz/lph8rwt12pb77g4kvq2dx3yc0000gn/T//cc30SpKW.s 			page 19


 1025              		.set	.LANCHOR3,. + 0
 1026              		.type	ser_cfg.10802, %object
 1027              		.size	ser_cfg.10802, 12
 1028              	ser_cfg.10802:
 1029 0000 00C20100 		.word	115200
 1030 0004 0000     		.short	0
 1031 0006 0000     		.short	0
 1032 0008 0000     		.short	0
 1033 000a 0000     		.space	2
 1034              		.section	.data.toggle_period_rgb_led,"aw",%progbits
 1035              		.align	1
 1036              		.set	.LANCHOR1,. + 0
 1037              		.type	toggle_period_rgb_led, %object
 1038              		.size	toggle_period_rgb_led, 2
 1039              	toggle_period_rgb_led:
 1040 0000 E803     		.short	1000
 1041              		.section	.rodata.__stack_chk_fail.str1.4,"aMS",%progbits,1
 1042              		.align	2
 1043              	.LC0:
 1044 0000 53746163 		.ascii	"Stack smashing detected\000"
 1044      6B20736D 
 1044      61736869 
 1044      6E672064 
 1044      65746563 
 1045              		.text
 1046              	.Letext0:
 1047              		.file 2 "/Applications/Eclipse_e-puck2.app/Contents/Eclipse_e-puck2/Tools/gcc-arm-none-eabi-7-2017
 1048              		.file 3 "/Applications/Eclipse_e-puck2.app/Contents/Eclipse_e-puck2/Tools/gcc-arm-none-eabi-7-2017
 1049              		.file 4 "/Applications/Eclipse_e-puck2.app/Contents/Eclipse_e-puck2/Tools/gcc-arm-none-eabi-7-2017
 1050              		.file 5 "../../lib/e-puck2_main-processor/ChibiOS//os/rt/ports/ARMCMx/compilers/GCC/chtypes.h"
 1051              		.file 6 "../../lib/e-puck2_main-processor/ChibiOS//os/rt/include/chsystypes.h"
 1052              		.file 7 "../../lib/e-puck2_main-processor/ChibiOS//os/rt/include/chschd.h"
 1053              		.file 8 "../../lib/e-puck2_main-processor/ChibiOS//os/ext/CMSIS/include/core_cm4.h"
 1054              		.file 9 "../../lib/e-puck2_main-processor/ChibiOS//os/ext/CMSIS/ST/system_stm32f4xx.h"
 1055              		.file 10 "../../lib/e-puck2_main-processor/ChibiOS//os/ext/CMSIS/ST/stm32f407xx.h"
 1056              		.file 11 "../../lib/e-puck2_main-processor/ChibiOS//os/rt/ports/ARMCMx/chcore.h"
 1057              		.file 12 "../../lib/e-puck2_main-processor/ChibiOS//os/rt/ports/ARMCMx/chcore_v7m.h"
 1058              		.file 13 "../../lib/e-puck2_main-processor/ChibiOS//os/rt/include/chdebug.h"
 1059              		.file 14 "../../lib/e-puck2_main-processor/ChibiOS//os/rt/include/chtm.h"
 1060              		.file 15 "../../lib/e-puck2_main-processor/ChibiOS//os/rt/include/chstats.h"
 1061              		.file 16 "../../lib/e-puck2_main-processor/ChibiOS//os/rt/include/chsem.h"
 1062              		.file 17 "../../lib/e-puck2_main-processor/ChibiOS//os/rt/include/chmtx.h"
 1063              		.file 18 "../../lib/e-puck2_main-processor/ChibiOS//os/rt/include/chregistry.h"
 1064              		.file 19 "../../lib/e-puck2_main-processor/ChibiOS//os/rt/include/chcond.h"
 1065              		.file 20 "../../lib/e-puck2_main-processor/ChibiOS//os/rt/include/chevents.h"
 1066              		.file 21 "../../lib/e-puck2_main-processor/ChibiOS//os/rt/include/chqueues.h"
 1067              		.file 22 "../../lib/e-puck2_main-processor/ChibiOS//os/hal/ports/STM32/STM32F4xx/stm32_dma.h"
 1068              		.file 23 "../../lib/e-puck2_main-processor/ChibiOS//os/hal/include/hal_ioblock.h"
 1069              		.file 24 "../../lib/e-puck2_main-processor/ChibiOS//os/hal/ports/STM32/LLD/GPIOv2/pal_lld.h"
 1070              		.file 25 "../../lib/e-puck2_main-processor/ChibiOS//os/hal/include/adc.h"
 1071              		.file 26 "../../lib/e-puck2_main-processor/ChibiOS//os/hal/ports/STM32/STM32F4xx/adc_lld.h"
 1072              		.file 27 "../../lib/e-puck2_main-processor/ChibiOS//os/hal/include/can.h"
 1073              		.file 28 "../../lib/e-puck2_main-processor/ChibiOS//os/hal/ports/STM32/LLD/can_lld.h"
 1074              		.file 29 "../../lib/e-puck2_main-processor/ChibiOS//os/hal/include/dac.h"
 1075              		.file 30 "../../lib/e-puck2_main-processor/ChibiOS//os/hal/ports/STM32/LLD/DACv1/dac_lld.h"
 1076              		.file 31 "../../lib/e-puck2_main-processor/ChibiOS//os/hal/include/ext.h"
 1077              		.file 32 "../../lib/e-puck2_main-processor/ChibiOS//os/hal/ports/STM32/LLD/ext_lld.h"
ARM GAS  /var/folders/rz/lph8rwt12pb77g4kvq2dx3yc0000gn/T//cc30SpKW.s 			page 20


 1078              		.file 33 "../../lib/e-puck2_main-processor/ChibiOS//os/hal/include/gpt.h"
 1079              		.file 34 "../../lib/e-puck2_main-processor/ChibiOS//os/hal/ports/STM32/LLD/TIMv1/gpt_lld.h"
 1080              		.file 35 "../../lib/e-puck2_main-processor/ChibiOS//os/hal/ports/STM32/LLD/TIMv1/stm32_tim.h"
 1081              		.file 36 "../../lib/e-puck2_main-processor/ChibiOS//os/hal/include/i2c.h"
 1082              		.file 37 "../../lib/e-puck2_main-processor/ChibiOS//os/hal/ports/STM32/LLD/I2Cv1/i2c_lld.h"
 1083              		.file 38 "../../lib/e-puck2_main-processor/ChibiOS//os/hal/include/i2s.h"
 1084              		.file 39 "../../lib/e-puck2_main-processor/ChibiOS//os/hal/ports/STM32/LLD/SPIv1/i2s_lld.h"
 1085              		.file 40 "../../lib/e-puck2_main-processor/ChibiOS//os/hal/include/pwm.h"
 1086              		.file 41 "../../lib/e-puck2_main-processor/ChibiOS//os/hal/ports/STM32/LLD/TIMv1/pwm_lld.h"
 1087              		.file 42 "../../lib/e-puck2_main-processor/ChibiOS//os/hal/include/serial.h"
 1088              		.file 43 "../../lib/e-puck2_main-processor/ChibiOS//os/hal/ports/STM32/LLD/USARTv1/serial_lld.h"
 1089              		.file 44 "../../lib/e-puck2_main-processor/ChibiOS//os/hal/include/sdc.h"
 1090              		.file 45 "../../lib/e-puck2_main-processor/ChibiOS//os/hal/ports/STM32/LLD/sdc_lld.h"
 1091              		.file 46 "../../lib/e-puck2_main-processor/ChibiOS//os/hal/include/spi.h"
 1092              		.file 47 "../../lib/e-puck2_main-processor/ChibiOS//os/hal/ports/STM32/LLD/SPIv1/spi_lld.h"
 1093              		.file 48 "../../lib/e-puck2_main-processor/ChibiOS//os/hal/include/usb.h"
 1094              		.file 49 "../../lib/e-puck2_main-processor/ChibiOS//os/hal/ports/STM32/LLD/OTGv1/usb_lld.h"
 1095              		.file 50 "../../lib/e-puck2_main-processor/ChibiOS//os/hal/ports/STM32/LLD/OTGv1/stm32_otg.h"
 1096              		.file 51 "/Applications/Eclipse_e-puck2.app/Contents/Eclipse_e-puck2/Tools/gcc-arm-none-eabi-7-201
 1097              		.file 52 "../../lib/e-puck2_main-processor/src/msgbus/messagebus.h"
 1098              		.file 53 "../../lib/e-puck2_main-processor/ChibiOS_ext/os/hal/include/../ports/STM32/STM32F4xx/dcm
 1099              		.file 54 "./main.h"
 1100              		.file 55 "../../lib/e-puck2_main-processor/src/leds.h"
 1101              		.file 56 "../../lib/e-puck2_main-processor/ChibiOS//os/rt/include/chsys.h"
 1102              		.file 57 "../../lib/e-puck2_main-processor/ChibiOS//os/hal/include/hal.h"
 1103              		.file 58 "../../lib/e-puck2_main-processor/src/memory_protection.h"
 1104              		.file 59 "../../lib/e-puck2_main-processor/src/spi_comm.h"
 1105              		.file 60 "../../lib/e-puck2_main-processor/src/audio/audio_thread.h"
 1106              		.file 61 "../../lib/e-puck2_main-processor/src/audio/play_melody.h"
 1107              		.file 62 "../../lib/e-puck2_main-processor/src/camera/dcmi_camera.h"
 1108              		.file 63 "../../lib/e-puck2_main-processor/src/camera/po8030.h"
 1109              		.file 64 "../../lib/e-puck2_main-processor/src/motors.h"
 1110              		.file 65 "../../lib/e-puck2_main-processor/src/sensors/proximity.h"
 1111              		.file 66 "./find_path_to_exit.h"
 1112              		.file 67 "manage_camera.h"
 1113              		.file 68 "../../lib/e-puck2_main-processor/ChibiOS//os/rt/include/chthreads.h"