ARM GAS  /var/folders/rz/lph8rwt12pb77g4kvq2dx3yc0000gn/T//cc3VNkoD.s 			page 1


   1              		.cpu cortex-m4
   2              		.eabi_attribute 27, 1
   3              		.eabi_attribute 28, 1
   4              		.eabi_attribute 20, 1
   5              		.eabi_attribute 21, 1
   6              		.eabi_attribute 23, 3
   7              		.eabi_attribute 24, 1
   8              		.eabi_attribute 25, 1
   9              		.eabi_attribute 26, 1
  10              		.eabi_attribute 30, 2
  11              		.eabi_attribute 34, 1
  12              		.eabi_attribute 18, 4
  13              		.file	"manage_motors.c"
  14              		.text
  15              	.Ltext0:
  16              		.cfi_sections	.debug_frame
  17              		.section	.text.turn_left.part.0,"ax",%progbits
  18              		.align	1
  19              		.p2align 4,,15
  20              		.syntax unified
  21              		.thumb
  22              		.thumb_func
  23              		.fpu fpv4-sp-d16
  24              		.type	turn_left.part.0, %function
  25              	turn_left.part.0:
  26              	.LFB260:
  27              		.file 1 "manage_motors.c"
  28              		.loc 1 19 0
  29              		.cfi_startproc
  30              		@ args = 0, pretend = 0, frame = 8
  31              		@ frame_needed = 0, uses_anonymous_args = 0
  32              	.LVL0:
  33 0000 70B5     		push	{r4, r5, r6, lr}
  34              		.cfi_def_cfa_offset 16
  35              		.cfi_offset 4, -16
  36              		.cfi_offset 5, -12
  37              		.cfi_offset 6, -8
  38              		.cfi_offset 14, -4
  39 0002 2DED028B 		vpush.64	{d8}
  40              		.cfi_def_cfa_offset 24
  41              		.cfi_offset 80, -24
  42              		.cfi_offset 81, -20
  43 0006 284E     		ldr	r6, .L11
  44 0008 82B0     		sub	sp, sp, #8
  45              		.cfi_def_cfa_offset 32
  46              		.loc 1 19 0
  47 000a 3368     		ldr	r3, [r6]
  48 000c 0193     		str	r3, [sp, #4]
  49 000e 08EE100A 		vmov	s16, r0	@ int
  50              		.loc 1 26 0
  51 0012 0020     		movs	r0, #0
  52              	.LVL1:
  53 0014 FFF7FEFF 		bl	left_motor_set_pos
  54              	.LVL2:
  55              		.loc 1 27 0
  56 0018 0020     		movs	r0, #0
  57 001a FFF7FEFF 		bl	right_motor_set_pos
ARM GAS  /var/folders/rz/lph8rwt12pb77g4kvq2dx3yc0000gn/T//cc3VNkoD.s 			page 2


  58              	.LVL3:
  59              		.loc 1 30 0
  60 001e 2348     		ldr	r0, .L11+4
  61 0020 FFF7FEFF 		bl	left_motor_set_speed
  62              	.LVL4:
  63              		.loc 1 31 0
  64 0024 4FF4A570 		mov	r0, #330
  65 0028 FFF7FEFF 		bl	right_motor_set_speed
  66              	.LVL5:
  67              		.loc 1 34 0
  68 002c FFF7FEFF 		bl	left_motor_get_pos
  69              	.LVL6:
  70 0030 0546     		mov	r5, r0
  71              	.LVL7:
  72              		.loc 1 35 0
  73 0032 FFF7FEFF 		bl	right_motor_get_pos
  74              	.LVL8:
  75              		.loc 1 36 0
  76 0036 9FED1E6A 		vldr.32	s12, .L11+8
  77 003a DFED1E6A 		vldr.32	s13, .L11+12
  78 003e DFED1E7A 		vldr.32	s15, .L11+16
  79 0042 B8EE488A 		vcvt.f32.u32	s16, s16
  80 0046 88EE067A 		vdiv.f32	s14, s16, s12
  81 004a B5EE006A 		vmov.f32	s12, #2.5e-1
  82 004e 27EE267A 		vmul.f32	s14, s14, s13
  83 0052 F2EE0A6A 		vmov.f32	s13, #1.3e+1
  84 0056 27EE067A 		vmul.f32	s14, s14, s12
  85 005a 27EE277A 		vmul.f32	s14, s14, s15
  86 005e C7EE267A 		vdiv.f32	s15, s14, s13
  87 0062 FDEEE77A 		vcvt.s32.f32	s15, s15
  88 0066 17EE904A 		vmov	r4, s15	@ int
  89              	.LVL9:
  90              		.loc 1 38 0
  91 006a A542     		cmp	r5, r4
  92 006c 0BDA     		bge	.L2
  93 006e A042     		cmp	r0, r4
  94 0070 02DB     		blt	.L3
  95 0072 08E0     		b	.L2
  96              	.L9:
  97 0074 8442     		cmp	r4, r0
  98 0076 06DD     		ble	.L2
  99              	.LVL10:
 100              	.L3:
 101              		.loc 1 39 0
 102 0078 FFF7FEFF 		bl	left_motor_get_pos
 103              	.LVL11:
 104 007c 0546     		mov	r5, r0
 105              	.LVL12:
 106              		.loc 1 40 0
 107 007e FFF7FEFF 		bl	right_motor_get_pos
 108              	.LVL13:
 109              		.loc 1 38 0
 110 0082 AC42     		cmp	r4, r5
 111 0084 F6DC     		bgt	.L9
 112              	.LVL14:
 113              	.L2:
 114              		.loc 1 42 0
ARM GAS  /var/folders/rz/lph8rwt12pb77g4kvq2dx3yc0000gn/T//cc3VNkoD.s 			page 3


 115 0086 0020     		movs	r0, #0
 116 0088 FFF7FEFF 		bl	left_motor_set_speed
 117              	.LVL15:
 118              		.loc 1 43 0
 119 008c 019A     		ldr	r2, [sp, #4]
 120 008e 3368     		ldr	r3, [r6]
 121 0090 9A42     		cmp	r2, r3
 122 0092 07D1     		bne	.L10
 123 0094 0020     		movs	r0, #0
 124              		.loc 1 44 0
 125 0096 02B0     		add	sp, sp, #8
 126              		.cfi_remember_state
 127              		.cfi_def_cfa_offset 24
 128              		@ sp needed
 129 0098 BDEC028B 		vldm	sp!, {d8}
 130              		.cfi_restore 80
 131              		.cfi_restore 81
 132              		.cfi_def_cfa_offset 16
 133 009c BDE87040 		pop	{r4, r5, r6, lr}
 134              		.cfi_restore 14
 135              		.cfi_restore 6
 136              		.cfi_restore 5
 137              		.cfi_restore 4
 138              		.cfi_def_cfa_offset 0
 139              	.LVL16:
 140              		.loc 1 43 0
 141 00a0 FFF7FEBF 		b	right_motor_set_speed
 142              	.LVL17:
 143              	.L10:
 144              		.cfi_restore_state
 145 00a4 FFF7FEFF 		bl	__stack_chk_fail
 146              	.LVL18:
 147              	.L12:
 148              		.align	2
 149              	.L11:
 150 00a8 00000000 		.word	__stack_chk_guard
 151 00ac B6FEFFFF 		.word	-330
 152 00b0 0000B442 		.word	1119092736
 153 00b4 CD758641 		.word	1099331021
 154 00b8 00007A44 		.word	1148846080
 155              		.cfi_endproc
 156              	.LFE260:
 157              		.size	turn_left.part.0, .-turn_left.part.0
 158              		.section	.text.turn_right.part.1,"ax",%progbits
 159              		.align	1
 160              		.p2align 4,,15
 161              		.syntax unified
 162              		.thumb
 163              		.thumb_func
 164              		.fpu fpv4-sp-d16
 165              		.type	turn_right.part.1, %function
 166              	turn_right.part.1:
 167              	.LFB261:
 168              		.loc 1 51 0
 169              		.cfi_startproc
 170              		@ args = 0, pretend = 0, frame = 8
 171              		@ frame_needed = 0, uses_anonymous_args = 0
ARM GAS  /var/folders/rz/lph8rwt12pb77g4kvq2dx3yc0000gn/T//cc3VNkoD.s 			page 4


 172              	.LVL19:
 173 0000 70B5     		push	{r4, r5, r6, lr}
 174              		.cfi_def_cfa_offset 16
 175              		.cfi_offset 4, -16
 176              		.cfi_offset 5, -12
 177              		.cfi_offset 6, -8
 178              		.cfi_offset 14, -4
 179 0002 2DED028B 		vpush.64	{d8}
 180              		.cfi_def_cfa_offset 24
 181              		.cfi_offset 80, -24
 182              		.cfi_offset 81, -20
 183 0006 284E     		ldr	r6, .L22
 184 0008 82B0     		sub	sp, sp, #8
 185              		.cfi_def_cfa_offset 32
 186              		.loc 1 51 0
 187 000a 3368     		ldr	r3, [r6]
 188 000c 0193     		str	r3, [sp, #4]
 189 000e 08EE100A 		vmov	s16, r0	@ int
 190              		.loc 1 58 0
 191 0012 0020     		movs	r0, #0
 192              	.LVL20:
 193 0014 FFF7FEFF 		bl	left_motor_set_pos
 194              	.LVL21:
 195              		.loc 1 59 0
 196 0018 0020     		movs	r0, #0
 197 001a FFF7FEFF 		bl	right_motor_set_pos
 198              	.LVL22:
 199              		.loc 1 62 0
 200 001e 4FF4A570 		mov	r0, #330
 201 0022 FFF7FEFF 		bl	left_motor_set_speed
 202              	.LVL23:
 203              		.loc 1 63 0
 204 0026 2148     		ldr	r0, .L22+4
 205 0028 FFF7FEFF 		bl	right_motor_set_speed
 206              	.LVL24:
 207              		.loc 1 66 0
 208 002c FFF7FEFF 		bl	left_motor_get_pos
 209              	.LVL25:
 210 0030 0546     		mov	r5, r0
 211              	.LVL26:
 212              		.loc 1 67 0
 213 0032 FFF7FEFF 		bl	right_motor_get_pos
 214              	.LVL27:
 215              		.loc 1 68 0
 216 0036 9FED1E6A 		vldr.32	s12, .L22+8
 217 003a DFED1E6A 		vldr.32	s13, .L22+12
 218 003e DFED1E7A 		vldr.32	s15, .L22+16
 219 0042 B8EE488A 		vcvt.f32.u32	s16, s16
 220 0046 88EE067A 		vdiv.f32	s14, s16, s12
 221 004a B5EE006A 		vmov.f32	s12, #2.5e-1
 222 004e 27EE267A 		vmul.f32	s14, s14, s13
 223 0052 F2EE0A6A 		vmov.f32	s13, #1.3e+1
 224 0056 27EE067A 		vmul.f32	s14, s14, s12
 225 005a 27EE277A 		vmul.f32	s14, s14, s15
 226 005e C7EE267A 		vdiv.f32	s15, s14, s13
 227 0062 FDEEE77A 		vcvt.s32.f32	s15, s15
 228 0066 17EE904A 		vmov	r4, s15	@ int
ARM GAS  /var/folders/rz/lph8rwt12pb77g4kvq2dx3yc0000gn/T//cc3VNkoD.s 			page 5


 229              	.LVL28:
 230              		.loc 1 70 0
 231 006a A542     		cmp	r5, r4
 232 006c 0BDA     		bge	.L14
 233 006e A042     		cmp	r0, r4
 234 0070 02DB     		blt	.L15
 235 0072 08E0     		b	.L14
 236              	.L20:
 237 0074 8442     		cmp	r4, r0
 238 0076 06DD     		ble	.L14
 239              	.LVL29:
 240              	.L15:
 241              		.loc 1 71 0
 242 0078 FFF7FEFF 		bl	left_motor_get_pos
 243              	.LVL30:
 244 007c 0546     		mov	r5, r0
 245              	.LVL31:
 246              		.loc 1 72 0
 247 007e FFF7FEFF 		bl	right_motor_get_pos
 248              	.LVL32:
 249              		.loc 1 70 0
 250 0082 AC42     		cmp	r4, r5
 251 0084 F6DC     		bgt	.L20
 252              	.LVL33:
 253              	.L14:
 254              		.loc 1 74 0
 255 0086 0020     		movs	r0, #0
 256 0088 FFF7FEFF 		bl	left_motor_set_speed
 257              	.LVL34:
 258              		.loc 1 75 0
 259 008c 019A     		ldr	r2, [sp, #4]
 260 008e 3368     		ldr	r3, [r6]
 261 0090 9A42     		cmp	r2, r3
 262 0092 07D1     		bne	.L21
 263 0094 0020     		movs	r0, #0
 264              		.loc 1 77 0
 265 0096 02B0     		add	sp, sp, #8
 266              		.cfi_remember_state
 267              		.cfi_def_cfa_offset 24
 268              		@ sp needed
 269 0098 BDEC028B 		vldm	sp!, {d8}
 270              		.cfi_restore 80
 271              		.cfi_restore 81
 272              		.cfi_def_cfa_offset 16
 273 009c BDE87040 		pop	{r4, r5, r6, lr}
 274              		.cfi_restore 14
 275              		.cfi_restore 6
 276              		.cfi_restore 5
 277              		.cfi_restore 4
 278              		.cfi_def_cfa_offset 0
 279              	.LVL35:
 280              		.loc 1 75 0
 281 00a0 FFF7FEBF 		b	right_motor_set_speed
 282              	.LVL36:
 283              	.L21:
 284              		.cfi_restore_state
 285 00a4 FFF7FEFF 		bl	__stack_chk_fail
ARM GAS  /var/folders/rz/lph8rwt12pb77g4kvq2dx3yc0000gn/T//cc3VNkoD.s 			page 6


 286              	.LVL37:
 287              	.L23:
 288              		.align	2
 289              	.L22:
 290 00a8 00000000 		.word	__stack_chk_guard
 291 00ac B6FEFFFF 		.word	-330
 292 00b0 0000B442 		.word	1119092736
 293 00b4 CD758641 		.word	1099331021
 294 00b8 00007A44 		.word	1148846080
 295              		.cfi_endproc
 296              	.LFE261:
 297              		.size	turn_right.part.1, .-turn_right.part.1
 298              		.section	.text.turn_left,"ax",%progbits
 299              		.align	1
 300              		.p2align 4,,15
 301              		.global	turn_left
 302              		.syntax unified
 303              		.thumb
 304              		.thumb_func
 305              		.fpu fpv4-sp-d16
 306              		.type	turn_left, %function
 307              	turn_left:
 308              	.LFB257:
 309              		.loc 1 19 0
 310              		.cfi_startproc
 311              		@ args = 0, pretend = 0, frame = 8
 312              		@ frame_needed = 0, uses_anonymous_args = 0
 313              	.LVL38:
 314 0000 00B5     		push	{lr}
 315              		.cfi_def_cfa_offset 4
 316              		.cfi_offset 14, -4
 317 0002 0A4B     		ldr	r3, .L31
 318 0004 83B0     		sub	sp, sp, #12
 319              		.cfi_def_cfa_offset 16
 320              		.loc 1 19 0
 321 0006 1A68     		ldr	r2, [r3]
 322 0008 0192     		str	r2, [sp, #4]
 323              		.loc 1 44 0
 324 000a 019A     		ldr	r2, [sp, #4]
 325 000c 1B68     		ldr	r3, [r3]
 326              		.loc 1 21 0
 327 000e 20B9     		cbnz	r0, .L30
 328              		.loc 1 44 0
 329 0010 9A42     		cmp	r2, r3
 330 0012 09D1     		bne	.L29
 331 0014 03B0     		add	sp, sp, #12
 332              		.cfi_remember_state
 333              		.cfi_def_cfa_offset 4
 334              		@ sp needed
 335 0016 5DF804FB 		ldr	pc, [sp], #4
 336              	.L30:
 337              		.cfi_restore_state
 338 001a 9A42     		cmp	r2, r3
 339 001c 04D1     		bne	.L29
 340 001e 03B0     		add	sp, sp, #12
 341              		.cfi_remember_state
 342              		.cfi_def_cfa_offset 4
ARM GAS  /var/folders/rz/lph8rwt12pb77g4kvq2dx3yc0000gn/T//cc3VNkoD.s 			page 7


 343              		@ sp needed
 344 0020 5DF804EB 		ldr	lr, [sp], #4
 345              		.cfi_restore 14
 346              		.cfi_def_cfa_offset 0
 347 0024 FFF7FEBF 		b	turn_left.part.0
 348              	.LVL39:
 349              	.L29:
 350              		.cfi_restore_state
 351 0028 FFF7FEFF 		bl	__stack_chk_fail
 352              	.LVL40:
 353              	.L32:
 354              		.align	2
 355              	.L31:
 356 002c 00000000 		.word	__stack_chk_guard
 357              		.cfi_endproc
 358              	.LFE257:
 359              		.size	turn_left, .-turn_left
 360              		.section	.text.turn_right,"ax",%progbits
 361              		.align	1
 362              		.p2align 4,,15
 363              		.global	turn_right
 364              		.syntax unified
 365              		.thumb
 366              		.thumb_func
 367              		.fpu fpv4-sp-d16
 368              		.type	turn_right, %function
 369              	turn_right:
 370              	.LFB258:
 371              		.loc 1 51 0
 372              		.cfi_startproc
 373              		@ args = 0, pretend = 0, frame = 8
 374              		@ frame_needed = 0, uses_anonymous_args = 0
 375              	.LVL41:
 376 0000 00B5     		push	{lr}
 377              		.cfi_def_cfa_offset 4
 378              		.cfi_offset 14, -4
 379 0002 0A4B     		ldr	r3, .L40
 380 0004 83B0     		sub	sp, sp, #12
 381              		.cfi_def_cfa_offset 16
 382              		.loc 1 51 0
 383 0006 1A68     		ldr	r2, [r3]
 384 0008 0192     		str	r2, [sp, #4]
 385              		.loc 1 77 0
 386 000a 019A     		ldr	r2, [sp, #4]
 387 000c 1B68     		ldr	r3, [r3]
 388              		.loc 1 53 0
 389 000e 20B9     		cbnz	r0, .L39
 390              		.loc 1 77 0
 391 0010 9A42     		cmp	r2, r3
 392 0012 09D1     		bne	.L38
 393 0014 03B0     		add	sp, sp, #12
 394              		.cfi_remember_state
 395              		.cfi_def_cfa_offset 4
 396              		@ sp needed
 397 0016 5DF804FB 		ldr	pc, [sp], #4
 398              	.L39:
 399              		.cfi_restore_state
ARM GAS  /var/folders/rz/lph8rwt12pb77g4kvq2dx3yc0000gn/T//cc3VNkoD.s 			page 8


 400 001a 9A42     		cmp	r2, r3
 401 001c 04D1     		bne	.L38
 402 001e 03B0     		add	sp, sp, #12
 403              		.cfi_remember_state
 404              		.cfi_def_cfa_offset 4
 405              		@ sp needed
 406 0020 5DF804EB 		ldr	lr, [sp], #4
 407              		.cfi_restore 14
 408              		.cfi_def_cfa_offset 0
 409 0024 FFF7FEBF 		b	turn_right.part.1
 410              	.LVL42:
 411              	.L38:
 412              		.cfi_restore_state
 413 0028 FFF7FEFF 		bl	__stack_chk_fail
 414              	.LVL43:
 415              	.L41:
 416              		.align	2
 417              	.L40:
 418 002c 00000000 		.word	__stack_chk_guard
 419              		.cfi_endproc
 420              	.LFE258:
 421              		.size	turn_right, .-turn_right
 422              		.section	.text.set_direction,"ax",%progbits
 423              		.align	1
 424              		.p2align 4,,15
 425              		.global	set_direction
 426              		.syntax unified
 427              		.thumb
 428              		.thumb_func
 429              		.fpu fpv4-sp-d16
 430              		.type	set_direction, %function
 431              	set_direction:
 432              	.LFB259:
 433              		.loc 1 87 0
 434              		.cfi_startproc
 435              		@ args = 0, pretend = 0, frame = 8
 436              		@ frame_needed = 0, uses_anonymous_args = 0
 437              	.LVL44:
 438 0000 10B5     		push	{r4, lr}
 439              		.cfi_def_cfa_offset 8
 440              		.cfi_offset 4, -8
 441              		.cfi_offset 14, -4
 442 0002 1F4C     		ldr	r4, .L57
 443 0004 82B0     		sub	sp, sp, #8
 444              		.cfi_def_cfa_offset 16
 445              		.loc 1 87 0
 446 0006 2368     		ldr	r3, [r4]
 447 0008 0193     		str	r3, [sp, #4]
 448              		.loc 1 88 0
 449 000a 0328     		cmp	r0, #3
 450 000c 31D8     		bhi	.L42
 451 000e DFE800F0 		tbb	[pc, r0]
 452              	.L45:
 453 0012 23       		.byte	(.L44-.L45)/2
 454 0013 16       		.byte	(.L46-.L45)/2
 455 0014 0C       		.byte	(.L47-.L45)/2
 456 0015 02       		.byte	(.L48-.L45)/2
ARM GAS  /var/folders/rz/lph8rwt12pb77g4kvq2dx3yc0000gn/T//cc3VNkoD.s 			page 9


 457              		.p2align 1
 458              	.L48:
 459              	.LVL45:
 460              	.LBB6:
 461              	.LBB7:
 462 0016 019A     		ldr	r2, [sp, #4]
 463 0018 2368     		ldr	r3, [r4]
 464 001a 9A42     		cmp	r2, r3
 465 001c 27D1     		bne	.L56
 466 001e 5A20     		movs	r0, #90
 467              	.LVL46:
 468              	.LBE7:
 469              	.LBE6:
 470              		.loc 1 104 0
 471 0020 02B0     		add	sp, sp, #8
 472              		.cfi_remember_state
 473              		.cfi_def_cfa_offset 8
 474              		@ sp needed
 475 0022 BDE81040 		pop	{r4, lr}
 476              		.cfi_restore 14
 477              		.cfi_restore 4
 478              		.cfi_def_cfa_offset 0
 479              	.LBB9:
 480              	.LBB8:
 481 0026 FFF7FEBF 		b	turn_right.part.1
 482              	.LVL47:
 483              	.L47:
 484              		.cfi_restore_state
 485              	.LBE8:
 486              	.LBE9:
 487              	.LBB10:
 488              	.LBB11:
 489 002a 019A     		ldr	r2, [sp, #4]
 490 002c 2368     		ldr	r3, [r4]
 491 002e 9A42     		cmp	r2, r3
 492 0030 1DD1     		bne	.L56
 493 0032 5A20     		movs	r0, #90
 494              	.LVL48:
 495              	.LBE11:
 496              	.LBE10:
 497 0034 02B0     		add	sp, sp, #8
 498              		.cfi_remember_state
 499              		.cfi_def_cfa_offset 8
 500              		@ sp needed
 501 0036 BDE81040 		pop	{r4, lr}
 502              		.cfi_restore 14
 503              		.cfi_restore 4
 504              		.cfi_def_cfa_offset 0
 505              	.LBB13:
 506              	.LBB12:
 507 003a FFF7FEBF 		b	turn_left.part.0
 508              	.LVL49:
 509              	.L46:
 510              		.cfi_restore_state
 511              	.LBE12:
 512              	.LBE13:
 513              		.loc 1 94 0
ARM GAS  /var/folders/rz/lph8rwt12pb77g4kvq2dx3yc0000gn/T//cc3VNkoD.s 			page 10


 514 003e 1148     		ldr	r0, .L57+4
 515              	.LVL50:
 516 0040 FFF7FEFF 		bl	left_motor_set_speed
 517              	.LVL51:
 518              		.loc 1 95 0
 519 0044 019A     		ldr	r2, [sp, #4]
 520 0046 2368     		ldr	r3, [r4]
 521 0048 9A42     		cmp	r2, r3
 522 004a 10D1     		bne	.L56
 523 004c 0D48     		ldr	r0, .L57+4
 524              	.L55:
 525              		.loc 1 104 0
 526 004e 02B0     		add	sp, sp, #8
 527              		.cfi_remember_state
 528              		.cfi_def_cfa_offset 8
 529              		@ sp needed
 530 0050 BDE81040 		pop	{r4, lr}
 531              		.cfi_restore 14
 532              		.cfi_restore 4
 533              		.cfi_def_cfa_offset 0
 534              		.loc 1 95 0
 535 0054 FFF7FEBF 		b	right_motor_set_speed
 536              	.LVL52:
 537              	.L44:
 538              		.cfi_restore_state
 539              		.loc 1 90 0
 540 0058 4FF4A570 		mov	r0, #330
 541              	.LVL53:
 542 005c FFF7FEFF 		bl	left_motor_set_speed
 543              	.LVL54:
 544              		.loc 1 91 0
 545 0060 019A     		ldr	r2, [sp, #4]
 546 0062 2368     		ldr	r3, [r4]
 547 0064 9A42     		cmp	r2, r3
 548 0066 08BF     		it	eq
 549 0068 4FF4A570 		moveq	r0, #330
 550 006c EFD0     		beq	.L55
 551              	.L56:
 552              		.loc 1 104 0
 553 006e FFF7FEFF 		bl	__stack_chk_fail
 554              	.LVL55:
 555              	.L42:
 556 0072 019A     		ldr	r2, [sp, #4]
 557 0074 2368     		ldr	r3, [r4]
 558 0076 9A42     		cmp	r2, r3
 559 0078 F9D1     		bne	.L56
 560 007a 02B0     		add	sp, sp, #8
 561              		@ sp needed
 562 007c 10BD     		pop	{r4, pc}
 563              	.L58:
 564 007e 00BF     		.align	2
 565              	.L57:
 566 0080 00000000 		.word	__stack_chk_guard
 567 0084 B6FEFFFF 		.word	-330
 568              		.cfi_endproc
 569              	.LFE259:
 570              		.size	set_direction, .-set_direction
ARM GAS  /var/folders/rz/lph8rwt12pb77g4kvq2dx3yc0000gn/T//cc3VNkoD.s 			page 11


 571              		.text
 572              	.Letext0:
 573              		.file 2 "/Applications/Eclipse_e-puck2.app/Contents/Eclipse_e-puck2/Tools/gcc-arm-none-eabi-7-2017
 574              		.file 3 "/Applications/Eclipse_e-puck2.app/Contents/Eclipse_e-puck2/Tools/gcc-arm-none-eabi-7-2017
 575              		.file 4 "/Applications/Eclipse_e-puck2.app/Contents/Eclipse_e-puck2/Tools/gcc-arm-none-eabi-7-2017
 576              		.file 5 "../../lib/e-puck2_main-processor/ChibiOS//os/rt/ports/ARMCMx/compilers/GCC/chtypes.h"
 577              		.file 6 "../../lib/e-puck2_main-processor/ChibiOS//os/rt/include/chsystypes.h"
 578              		.file 7 "../../lib/e-puck2_main-processor/ChibiOS//os/rt/include/chschd.h"
 579              		.file 8 "../../lib/e-puck2_main-processor/ChibiOS//os/ext/CMSIS/include/core_cm4.h"
 580              		.file 9 "../../lib/e-puck2_main-processor/ChibiOS//os/ext/CMSIS/ST/system_stm32f4xx.h"
 581              		.file 10 "../../lib/e-puck2_main-processor/ChibiOS//os/ext/CMSIS/ST/stm32f407xx.h"
 582              		.file 11 "../../lib/e-puck2_main-processor/ChibiOS//os/rt/ports/ARMCMx/chcore.h"
 583              		.file 12 "../../lib/e-puck2_main-processor/ChibiOS//os/rt/ports/ARMCMx/chcore_v7m.h"
 584              		.file 13 "../../lib/e-puck2_main-processor/ChibiOS//os/rt/include/chdebug.h"
 585              		.file 14 "../../lib/e-puck2_main-processor/ChibiOS//os/rt/include/chtm.h"
 586              		.file 15 "../../lib/e-puck2_main-processor/ChibiOS//os/rt/include/chstats.h"
 587              		.file 16 "../../lib/e-puck2_main-processor/ChibiOS//os/rt/include/chsem.h"
 588              		.file 17 "../../lib/e-puck2_main-processor/ChibiOS//os/rt/include/chmtx.h"
 589              		.file 18 "../../lib/e-puck2_main-processor/ChibiOS//os/rt/include/chregistry.h"
 590              		.file 19 "../../lib/e-puck2_main-processor/ChibiOS//os/rt/include/chevents.h"
 591              		.file 20 "../../lib/e-puck2_main-processor/ChibiOS//os/rt/include/chqueues.h"
 592              		.file 21 "../../lib/e-puck2_main-processor/ChibiOS//os/hal/ports/STM32/STM32F4xx/stm32_dma.h"
 593              		.file 22 "../../lib/e-puck2_main-processor/ChibiOS//os/hal/include/hal_ioblock.h"
 594              		.file 23 "../../lib/e-puck2_main-processor/ChibiOS//os/hal/ports/STM32/LLD/GPIOv2/pal_lld.h"
 595              		.file 24 "../../lib/e-puck2_main-processor/ChibiOS//os/hal/include/adc.h"
 596              		.file 25 "../../lib/e-puck2_main-processor/ChibiOS//os/hal/ports/STM32/STM32F4xx/adc_lld.h"
 597              		.file 26 "../../lib/e-puck2_main-processor/ChibiOS//os/hal/include/can.h"
 598              		.file 27 "../../lib/e-puck2_main-processor/ChibiOS//os/hal/ports/STM32/LLD/can_lld.h"
 599              		.file 28 "../../lib/e-puck2_main-processor/ChibiOS//os/hal/include/dac.h"
 600              		.file 29 "../../lib/e-puck2_main-processor/ChibiOS//os/hal/ports/STM32/LLD/DACv1/dac_lld.h"
 601              		.file 30 "../../lib/e-puck2_main-processor/ChibiOS//os/hal/include/ext.h"
 602              		.file 31 "../../lib/e-puck2_main-processor/ChibiOS//os/hal/ports/STM32/LLD/ext_lld.h"
 603              		.file 32 "../../lib/e-puck2_main-processor/ChibiOS//os/hal/include/gpt.h"
 604              		.file 33 "../../lib/e-puck2_main-processor/ChibiOS//os/hal/ports/STM32/LLD/TIMv1/gpt_lld.h"
 605              		.file 34 "../../lib/e-puck2_main-processor/ChibiOS//os/hal/ports/STM32/LLD/TIMv1/stm32_tim.h"
 606              		.file 35 "../../lib/e-puck2_main-processor/ChibiOS//os/hal/include/i2c.h"
 607              		.file 36 "../../lib/e-puck2_main-processor/ChibiOS//os/hal/ports/STM32/LLD/I2Cv1/i2c_lld.h"
 608              		.file 37 "../../lib/e-puck2_main-processor/ChibiOS//os/hal/include/i2s.h"
 609              		.file 38 "../../lib/e-puck2_main-processor/ChibiOS//os/hal/ports/STM32/LLD/SPIv1/i2s_lld.h"
 610              		.file 39 "../../lib/e-puck2_main-processor/ChibiOS//os/hal/include/pwm.h"
 611              		.file 40 "../../lib/e-puck2_main-processor/ChibiOS//os/hal/ports/STM32/LLD/TIMv1/pwm_lld.h"
 612              		.file 41 "../../lib/e-puck2_main-processor/ChibiOS//os/hal/include/serial.h"
 613              		.file 42 "../../lib/e-puck2_main-processor/ChibiOS//os/hal/ports/STM32/LLD/USARTv1/serial_lld.h"
 614              		.file 43 "../../lib/e-puck2_main-processor/ChibiOS//os/hal/include/sdc.h"
 615              		.file 44 "../../lib/e-puck2_main-processor/ChibiOS//os/hal/ports/STM32/LLD/sdc_lld.h"
 616              		.file 45 "../../lib/e-puck2_main-processor/ChibiOS//os/hal/include/spi.h"
 617              		.file 46 "../../lib/e-puck2_main-processor/ChibiOS//os/hal/ports/STM32/LLD/SPIv1/spi_lld.h"
 618              		.file 47 "../../lib/e-puck2_main-processor/ChibiOS//os/hal/include/usb.h"
 619              		.file 48 "../../lib/e-puck2_main-processor/ChibiOS//os/hal/ports/STM32/LLD/OTGv1/usb_lld.h"
 620              		.file 49 "../../lib/e-puck2_main-processor/ChibiOS//os/hal/ports/STM32/LLD/OTGv1/stm32_otg.h"
 621              		.file 50 "../../lib/e-puck2_main-processor/ChibiOS//os/hal/include/serial_usb.h"
 622              		.file 51 "../../lib/e-puck2_main-processor/src/usbcfg.h"
 623              		.file 52 "../../lib/e-puck2_main-processor/src/motors.h"
 624              		.file 53 "./manage_motors.h"