ARM GAS  /var/folders/rz/lph8rwt12pb77g4kvq2dx3yc0000gn/T//ccdpDBnc.s 			page 1


   1              		.cpu cortex-m4
   2              		.eabi_attribute 27, 1
   3              		.eabi_attribute 28, 1
   4              		.eabi_attribute 20, 1
   5              		.eabi_attribute 21, 1
   6              		.eabi_attribute 23, 3
   7              		.eabi_attribute 24, 1
   8              		.eabi_attribute 25, 1
   9              		.eabi_attribute 26, 1
  10              		.eabi_attribute 30, 2
  11              		.eabi_attribute 34, 1
  12              		.eabi_attribute 18, 4
  13              		.file	"manage_camera.c"
  14              		.text
  15              	.Ltext0:
  16              		.cfi_sections	.debug_frame
  17              		.section	.text.CaptureImage,"ax",%progbits
  18              		.align	1
  19              		.p2align 4,,15
  20              		.syntax unified
  21              		.thumb
  22              		.thumb_func
  23              		.fpu fpv4-sp-d16
  24              		.type	CaptureImage, %function
  25              	CaptureImage:
  26              	.LFB263:
  27              		.file 1 "manage_camera.c"
  28              		.loc 1 143 0
  29              		.cfi_startproc
  30              		@ Volatile: function does not return.
  31              		@ args = 0, pretend = 0, frame = 8
  32              		@ frame_needed = 0, uses_anonymous_args = 0
  33              	.LVL0:
  34 0000 80B5     		push	{r7, lr}
  35              		.cfi_def_cfa_offset 8
  36              		.cfi_offset 7, -8
  37              		.cfi_offset 14, -4
  38              	.LBB63:
  39              	.LBB64:
  40              		.file 2 "../../lib/e-puck2_main-processor/ChibiOS//os/rt/include/chregistry.h"
  41              		.loc 2 135 0
  42 0002 264C     		ldr	r4, .L8
  43              	.LBE64:
  44              	.LBE63:
  45              		.loc 1 143 0
  46 0004 264A     		ldr	r2, .L8+4
  47              	.LBB66:
  48              	.LBB65:
  49              		.loc 2 135 0
  50 0006 A369     		ldr	r3, [r4, #24]
  51 0008 2649     		ldr	r1, .L8+8
  52 000a 9961     		str	r1, [r3, #24]
  53              	.LBE65:
  54              	.LBE66:
  55              		.loc 1 143 0
  56 000c 86B0     		sub	sp, sp, #24
  57              		.cfi_def_cfa_offset 32
ARM GAS  /var/folders/rz/lph8rwt12pb77g4kvq2dx3yc0000gn/T//ccdpDBnc.s 			page 2


  58              		.loc 1 149 0
  59 000e 0223     		movs	r3, #2
  60 0010 2025     		movs	r5, #32
  61              		.loc 1 143 0
  62 0012 1668     		ldr	r6, [r2]
  63              		.loc 1 149 0
  64 0014 0093     		str	r3, [sp]
  65 0016 0A22     		movs	r2, #10
  66 0018 4FF42073 		mov	r3, #640
  67 001c 0021     		movs	r1, #0
  68 001e CDE90155 		strd	r5, r5, [sp, #4]
  69 0022 3020     		movs	r0, #48
  70              	.LVL1:
  71              		.loc 1 143 0
  72 0024 0596     		str	r6, [sp, #20]
  73              		.loc 1 149 0
  74 0026 FFF7FEFF 		bl	po8030_advanced_config
  75              	.LVL2:
  76              		.loc 1 150 0
  77 002a FFF7FEFF 		bl	dcmi_enable_double_buffering
  78              	.LVL3:
  79              		.loc 1 151 0
  80 002e 0020     		movs	r0, #0
  81 0030 FFF7FEFF 		bl	dcmi_set_capture_mode
  82              	.LVL4:
  83 0034 1C4E     		ldr	r6, .L8+12
  84              	.LBB67:
  85              	.LBB68:
  86              	.LBB69:
  87              	.LBB70:
  88              		.file 3 "../../lib/e-puck2_main-processor/ChibiOS//os/rt/include/chsys.h"
  89              		.loc 3 367 0
  90 0036 1D4F     		ldr	r7, .L8+16
  91              	.LBE70:
  92              	.LBE69:
  93              	.LBE68:
  94              	.LBE67:
  95              		.loc 1 152 0
  96 0038 FFF7FEFF 		bl	dcmi_prepare
  97              	.LVL5:
  98              		.loc 1 155 0
  99 003c 0A20     		movs	r0, #10
 100 003e FFF7FEFF 		bl	chThdSleep
 101              	.LVL6:
 102              		.loc 1 156 0
 103 0042 0020     		movs	r0, #0
 104 0044 FFF7FEFF 		bl	po8030_set_awb
 105              	.LVL7:
 106              	.LBB87:
 107              	.LBB85:
 108              	.LBB75:
 109              	.LBB76:
 110              		.file 4 "../../lib/e-puck2_main-processor/ChibiOS//os/rt/include/chbsem.h"
 111              		.loc 4 271 0
 112 0048 B046     		mov	r8, r6
 113 004a 13E0     		b	.L4
 114              	.LVL8:
ARM GAS  /var/folders/rz/lph8rwt12pb77g4kvq2dx3yc0000gn/T//ccdpDBnc.s 			page 3


 115              	.L2:
 116              	.LBE76:
 117              	.LBE75:
 118              		.loc 4 286 0
 119 004c FFF7FEFF 		bl	chSchRescheduleS
 120              	.LVL9:
 121              	.LBB78:
 122              	.LBB74:
 123              		.loc 3 360 0
 124 0050 FFF7FEFF 		bl	_dbg_check_unlock
 125              	.LVL10:
 126              		.loc 3 361 0
 127 0054 FFF7FEFF 		bl	_stats_stop_measure_crit_thd
 128              	.LVL11:
 129              		.loc 3 367 0
 130 0058 2368     		ldr	r3, [r4]
 131 005a A342     		cmp	r3, r4
 132 005c 07D0     		beq	.L3
 133 005e A269     		ldr	r2, [r4, #24]
 134 0060 9B68     		ldr	r3, [r3, #8]
 135 0062 9268     		ldr	r2, [r2, #8]
 136 0064 9A42     		cmp	r2, r3
 137 0066 02D2     		bcs	.L3
 138 0068 3846     		mov	r0, r7
 139 006a FFF7FEFF 		bl	chSysHalt
 140              	.LVL12:
 141              	.L3:
 142              	.LBB71:
 143              	.LBB72:
 144              	.LBB73:
 145              		.file 5 "../../lib/e-puck2_main-processor/ChibiOS//os/ext/CMSIS/include/core_cmFunc.h"
 146              		.loc 5 546 0
 147 006e 0023     		movs	r3, #0
 148              		.syntax unified
 149              	@ 546 "../../lib/e-puck2_main-processor/ChibiOS//os/ext/CMSIS/include/core_cmFunc.h" 1
 150 0070 83F31188 		MSR basepri, r3
 151              	@ 0 "" 2
 152              	.LVL13:
 153              		.thumb
 154              		.syntax unified
 155              	.L4:
 156              	.LBE73:
 157              	.LBE72:
 158              	.LBE71:
 159              	.LBE74:
 160              	.LBE78:
 161              	.LBE85:
 162              	.LBE87:
 163              		.loc 1 160 0 discriminator 1
 164 0074 FFF7FEFF 		bl	dcmi_capture_start
 165              	.LVL14:
 166              		.loc 1 162 0 discriminator 1
 167 0078 FFF7FEFF 		bl	wait_image_ready
 168              	.LVL15:
 169              	.LBB88:
 170              	.LBB86:
 171              	.LBB79:
ARM GAS  /var/folders/rz/lph8rwt12pb77g4kvq2dx3yc0000gn/T//ccdpDBnc.s 			page 4


 172              	.LBB80:
 173              	.LBB81:
 174              	.LBB82:
 175              	.LBB83:
 176              		.loc 5 546 0 discriminator 1
 177              		.syntax unified
 178              	@ 546 "../../lib/e-puck2_main-processor/ChibiOS//os/ext/CMSIS/include/core_cmFunc.h" 1
 179 007c 85F31188 		MSR basepri, r5
 180              	@ 0 "" 2
 181              	.LVL16:
 182              		.thumb
 183              		.syntax unified
 184              	.LBE83:
 185              	.LBE82:
 186              	.LBE81:
 187              		.loc 3 349 0 discriminator 1
 188 0080 FFF7FEFF 		bl	_stats_start_measure_crit_thd
 189              	.LVL17:
 190              		.loc 3 350 0 discriminator 1
 191 0084 FFF7FEFF 		bl	_dbg_check_lock
 192              	.LVL18:
 193              	.LBE80:
 194              	.LBE79:
 195              	.LBB84:
 196              	.LBB77:
 197              		.loc 4 268 0 discriminator 1
 198 0088 FFF7FEFF 		bl	chDbgCheckClassI
 199              	.LVL19:
 200              		.loc 4 270 0 discriminator 1
 201 008c B368     		ldr	r3, [r6, #8]
 202 008e 002B     		cmp	r3, #0
 203 0090 DCDC     		bgt	.L2
 204              		.loc 4 271 0
 205 0092 4046     		mov	r0, r8
 206 0094 FFF7FEFF 		bl	chSemSignalI
 207              	.LVL20:
 208 0098 D8E7     		b	.L2
 209              	.L9:
 210 009a 00BF     		.align	2
 211              	.L8:
 212 009c 00000000 		.word	ch
 213 00a0 00000000 		.word	__stack_chk_guard
 214 00a4 00000000 		.word	.LANCHOR0
 215 00a8 00000000 		.word	.LANCHOR1
 216 00ac 00000000 		.word	.LANCHOR2
 217              	.LBE77:
 218              	.LBE84:
 219              	.LBE86:
 220              	.LBE88:
 221              		.cfi_endproc
 222              	.LFE263:
 223              		.size	CaptureImage, .-CaptureImage
 224              		.section	.text.get_see_white,"ax",%progbits
 225              		.align	1
 226              		.p2align 4,,15
 227              		.global	get_see_white
 228              		.syntax unified
ARM GAS  /var/folders/rz/lph8rwt12pb77g4kvq2dx3yc0000gn/T//ccdpDBnc.s 			page 5


 229              		.thumb
 230              		.thumb_func
 231              		.fpu fpv4-sp-d16
 232              		.type	get_see_white, %function
 233              	get_see_white:
 234              	.LFB256:
 235              		.loc 1 33 0
 236              		.cfi_startproc
 237              		@ args = 0, pretend = 0, frame = 8
 238              		@ frame_needed = 0, uses_anonymous_args = 0
 239 0000 00B5     		push	{lr}
 240              		.cfi_def_cfa_offset 4
 241              		.cfi_offset 14, -4
 242 0002 074B     		ldr	r3, .L14
 243              		.loc 1 34 0
 244 0004 0749     		ldr	r1, .L14+4
 245              		.loc 1 33 0
 246 0006 1A68     		ldr	r2, [r3]
 247              		.loc 1 35 0
 248 0008 0878     		ldrb	r0, [r1]	@ zero_extendqisi2
 249              		.loc 1 33 0
 250 000a 83B0     		sub	sp, sp, #12
 251              		.cfi_def_cfa_offset 16
 252              		.loc 1 33 0
 253 000c 0192     		str	r2, [sp, #4]
 254              		.loc 1 35 0
 255 000e 019A     		ldr	r2, [sp, #4]
 256 0010 1B68     		ldr	r3, [r3]
 257 0012 9A42     		cmp	r2, r3
 258 0014 02D1     		bne	.L13
 259 0016 03B0     		add	sp, sp, #12
 260              		.cfi_remember_state
 261              		.cfi_def_cfa_offset 4
 262              		@ sp needed
 263 0018 5DF804FB 		ldr	pc, [sp], #4
 264              	.L13:
 265              		.cfi_restore_state
 266 001c FFF7FEFF 		bl	__stack_chk_fail
 267              	.LVL21:
 268              	.L15:
 269              		.align	2
 270              	.L14:
 271 0020 00000000 		.word	__stack_chk_guard
 272 0024 00000000 		.word	.LANCHOR3
 273              		.cfi_endproc
 274              	.LFE256:
 275              		.size	get_see_white, .-get_see_white
 276              		.section	.text.set_see_white,"ax",%progbits
 277              		.align	1
 278              		.p2align 4,,15
 279              		.global	set_see_white
 280              		.syntax unified
 281              		.thumb
 282              		.thumb_func
 283              		.fpu fpv4-sp-d16
 284              		.type	set_see_white, %function
 285              	set_see_white:
ARM GAS  /var/folders/rz/lph8rwt12pb77g4kvq2dx3yc0000gn/T//ccdpDBnc.s 			page 6


 286              	.LFB257:
 287              		.loc 1 37 0
 288              		.cfi_startproc
 289              		@ args = 0, pretend = 0, frame = 8
 290              		@ frame_needed = 0, uses_anonymous_args = 0
 291              	.LVL22:
 292 0000 00B5     		push	{lr}
 293              		.cfi_def_cfa_offset 4
 294              		.cfi_offset 14, -4
 295 0002 074B     		ldr	r3, .L20
 296              		.loc 1 38 0
 297 0004 0749     		ldr	r1, .L20+4
 298              		.loc 1 37 0
 299 0006 1A68     		ldr	r2, [r3]
 300              		.loc 1 38 0
 301 0008 0870     		strb	r0, [r1]
 302              		.loc 1 37 0
 303 000a 83B0     		sub	sp, sp, #12
 304              		.cfi_def_cfa_offset 16
 305              		.loc 1 37 0
 306 000c 0192     		str	r2, [sp, #4]
 307              		.loc 1 39 0
 308 000e 019A     		ldr	r2, [sp, #4]
 309 0010 1B68     		ldr	r3, [r3]
 310 0012 9A42     		cmp	r2, r3
 311 0014 02D1     		bne	.L19
 312 0016 03B0     		add	sp, sp, #12
 313              		.cfi_remember_state
 314              		.cfi_def_cfa_offset 4
 315              		@ sp needed
 316 0018 5DF804FB 		ldr	pc, [sp], #4
 317              	.L19:
 318              		.cfi_restore_state
 319 001c FFF7FEFF 		bl	__stack_chk_fail
 320              	.LVL23:
 321              	.L21:
 322              		.align	2
 323              	.L20:
 324 0020 00000000 		.word	__stack_chk_guard
 325 0024 00000000 		.word	.LANCHOR3
 326              		.cfi_endproc
 327              	.LFE257:
 328              		.size	set_see_white, .-set_see_white
 329              		.section	.text.get_see_red,"ax",%progbits
 330              		.align	1
 331              		.p2align 4,,15
 332              		.global	get_see_red
 333              		.syntax unified
 334              		.thumb
 335              		.thumb_func
 336              		.fpu fpv4-sp-d16
 337              		.type	get_see_red, %function
 338              	get_see_red:
 339              	.LFB258:
 340              		.loc 1 41 0
 341              		.cfi_startproc
 342              		@ args = 0, pretend = 0, frame = 8
ARM GAS  /var/folders/rz/lph8rwt12pb77g4kvq2dx3yc0000gn/T//ccdpDBnc.s 			page 7


 343              		@ frame_needed = 0, uses_anonymous_args = 0
 344 0000 00B5     		push	{lr}
 345              		.cfi_def_cfa_offset 4
 346              		.cfi_offset 14, -4
 347 0002 074B     		ldr	r3, .L26
 348              		.loc 1 42 0
 349 0004 0749     		ldr	r1, .L26+4
 350              		.loc 1 41 0
 351 0006 1A68     		ldr	r2, [r3]
 352              		.loc 1 43 0
 353 0008 0878     		ldrb	r0, [r1]	@ zero_extendqisi2
 354              		.loc 1 41 0
 355 000a 83B0     		sub	sp, sp, #12
 356              		.cfi_def_cfa_offset 16
 357              		.loc 1 41 0
 358 000c 0192     		str	r2, [sp, #4]
 359              		.loc 1 43 0
 360 000e 019A     		ldr	r2, [sp, #4]
 361 0010 1B68     		ldr	r3, [r3]
 362 0012 9A42     		cmp	r2, r3
 363 0014 02D1     		bne	.L25
 364 0016 03B0     		add	sp, sp, #12
 365              		.cfi_remember_state
 366              		.cfi_def_cfa_offset 4
 367              		@ sp needed
 368 0018 5DF804FB 		ldr	pc, [sp], #4
 369              	.L25:
 370              		.cfi_restore_state
 371 001c FFF7FEFF 		bl	__stack_chk_fail
 372              	.LVL24:
 373              	.L27:
 374              		.align	2
 375              	.L26:
 376 0020 00000000 		.word	__stack_chk_guard
 377 0024 00000000 		.word	.LANCHOR4
 378              		.cfi_endproc
 379              	.LFE258:
 380              		.size	get_see_red, .-get_see_red
 381              		.section	.text.set_see_red,"ax",%progbits
 382              		.align	1
 383              		.p2align 4,,15
 384              		.global	set_see_red
 385              		.syntax unified
 386              		.thumb
 387              		.thumb_func
 388              		.fpu fpv4-sp-d16
 389              		.type	set_see_red, %function
 390              	set_see_red:
 391              	.LFB259:
 392              		.loc 1 45 0
 393              		.cfi_startproc
 394              		@ args = 0, pretend = 0, frame = 8
 395              		@ frame_needed = 0, uses_anonymous_args = 0
 396              	.LVL25:
 397 0000 00B5     		push	{lr}
 398              		.cfi_def_cfa_offset 4
 399              		.cfi_offset 14, -4
ARM GAS  /var/folders/rz/lph8rwt12pb77g4kvq2dx3yc0000gn/T//ccdpDBnc.s 			page 8


 400 0002 074B     		ldr	r3, .L32
 401              		.loc 1 46 0
 402 0004 0749     		ldr	r1, .L32+4
 403              		.loc 1 45 0
 404 0006 1A68     		ldr	r2, [r3]
 405              		.loc 1 46 0
 406 0008 0870     		strb	r0, [r1]
 407              		.loc 1 45 0
 408 000a 83B0     		sub	sp, sp, #12
 409              		.cfi_def_cfa_offset 16
 410              		.loc 1 45 0
 411 000c 0192     		str	r2, [sp, #4]
 412              		.loc 1 47 0
 413 000e 019A     		ldr	r2, [sp, #4]
 414 0010 1B68     		ldr	r3, [r3]
 415 0012 9A42     		cmp	r2, r3
 416 0014 02D1     		bne	.L31
 417 0016 03B0     		add	sp, sp, #12
 418              		.cfi_remember_state
 419              		.cfi_def_cfa_offset 4
 420              		@ sp needed
 421 0018 5DF804FB 		ldr	pc, [sp], #4
 422              	.L31:
 423              		.cfi_restore_state
 424 001c FFF7FEFF 		bl	__stack_chk_fail
 425              	.LVL26:
 426              	.L33:
 427              		.align	2
 428              	.L32:
 429 0020 00000000 		.word	__stack_chk_guard
 430 0024 00000000 		.word	.LANCHOR4
 431              		.cfi_endproc
 432              	.LFE259:
 433              		.size	set_see_red, .-set_see_red
 434              		.section	.text.dance,"ax",%progbits
 435              		.align	1
 436              		.p2align 4,,15
 437              		.global	dance
 438              		.syntax unified
 439              		.thumb
 440              		.thumb_func
 441              		.fpu fpv4-sp-d16
 442              		.type	dance, %function
 443              	dance:
 444              	.LFB260:
 445              		.loc 1 49 0
 446              		.cfi_startproc
 447              		@ args = 0, pretend = 0, frame = 8
 448              		@ frame_needed = 0, uses_anonymous_args = 0
 449 0000 30B5     		push	{r4, r5, lr}
 450              		.cfi_def_cfa_offset 12
 451              		.cfi_offset 4, -12
 452              		.cfi_offset 5, -8
 453              		.cfi_offset 14, -4
 454 0002 164D     		ldr	r5, .L43
 455              		.loc 1 52 0
 456 0004 164C     		ldr	r4, .L43+4
ARM GAS  /var/folders/rz/lph8rwt12pb77g4kvq2dx3yc0000gn/T//ccdpDBnc.s 			page 9


 457              		.loc 1 49 0
 458 0006 2B68     		ldr	r3, [r5]
 459 0008 83B0     		sub	sp, sp, #12
 460              		.cfi_def_cfa_offset 24
 461              		.loc 1 50 0
 462 000a 4FF42570 		mov	r0, #660
 463              		.loc 1 49 0
 464 000e 0193     		str	r3, [sp, #4]
 465              		.loc 1 50 0
 466 0010 FFF7FEFF 		bl	set_desired_speed
 467              	.LVL27:
 468              		.loc 1 52 0
 469 0014 2378     		ldrb	r3, [r4]	@ zero_extendqisi2
 470 0016 BBB1     		cbz	r3, .L40
 471              		.loc 1 55 0
 472 0018 022B     		cmp	r3, #2
 473              		.loc 1 56 0
 474 001a 4FF0B400 		mov	r0, #180
 475              		.loc 1 55 0
 476 001e 0DD0     		beq	.L41
 477              		.loc 1 59 0
 478 0020 FFF7FEFF 		bl	turn_left
 479              	.LVL28:
 480              		.loc 1 60 0
 481 0024 B420     		movs	r0, #180
 482 0026 FFF7FEFF 		bl	turn_right
 483              	.LVL29:
 484              	.L36:
 485              		.loc 1 63 0
 486 002a 2378     		ldrb	r3, [r4]	@ zero_extendqisi2
 487              		.loc 1 64 0
 488 002c 0199     		ldr	r1, [sp, #4]
 489 002e 2A68     		ldr	r2, [r5]
 490              		.loc 1 63 0
 491 0030 0133     		adds	r3, r3, #1
 492              		.loc 1 64 0
 493 0032 9142     		cmp	r1, r2
 494              		.loc 1 63 0
 495 0034 2370     		strb	r3, [r4]
 496              		.loc 1 64 0
 497 0036 0ED1     		bne	.L42
 498 0038 03B0     		add	sp, sp, #12
 499              		.cfi_remember_state
 500              		.cfi_def_cfa_offset 12
 501              		@ sp needed
 502 003a 30BD     		pop	{r4, r5, pc}
 503              	.L41:
 504              		.cfi_restore_state
 505              		.loc 1 56 0
 506 003c FFF7FEFF 		bl	turn_left
 507              	.LVL30:
 508              		.loc 1 57 0
 509 0040 5A20     		movs	r0, #90
 510 0042 FFF7FEFF 		bl	turn_right
 511              	.LVL31:
 512 0046 F0E7     		b	.L36
 513              	.L40:
ARM GAS  /var/folders/rz/lph8rwt12pb77g4kvq2dx3yc0000gn/T//ccdpDBnc.s 			page 10


 514              		.loc 1 53 0
 515 0048 5A20     		movs	r0, #90
 516 004a FFF7FEFF 		bl	turn_left
 517              	.LVL32:
 518              		.loc 1 54 0
 519 004e B420     		movs	r0, #180
 520 0050 FFF7FEFF 		bl	turn_right
 521              	.LVL33:
 522 0054 E9E7     		b	.L36
 523              	.L42:
 524              		.loc 1 64 0
 525 0056 FFF7FEFF 		bl	__stack_chk_fail
 526              	.LVL34:
 527              	.L44:
 528 005a 00BF     		.align	2
 529              	.L43:
 530 005c 00000000 		.word	__stack_chk_guard
 531 0060 00000000 		.word	.LANCHOR5
 532              		.cfi_endproc
 533              	.LFE260:
 534              		.size	dance, .-dance
 535              		.section	.text.process_image,"ax",%progbits
 536              		.align	1
 537              		.p2align 4,,15
 538              		.global	process_image
 539              		.syntax unified
 540              		.thumb
 541              		.thumb_func
 542              		.fpu fpv4-sp-d16
 543              		.type	process_image, %function
 544              	process_image:
 545              	.LFB261:
 546              		.loc 1 66 0
 547              		.cfi_startproc
 548              		@ args = 0, pretend = 0, frame = 8
 549              		@ frame_needed = 0, uses_anonymous_args = 0
 550 0000 2DE9F047 		push	{r4, r5, r6, r7, r8, r9, r10, lr}
 551              		.cfi_def_cfa_offset 32
 552              		.cfi_offset 4, -32
 553              		.cfi_offset 5, -28
 554              		.cfi_offset 6, -24
 555              		.cfi_offset 7, -20
 556              		.cfi_offset 8, -16
 557              		.cfi_offset 9, -12
 558              		.cfi_offset 10, -8
 559              		.cfi_offset 14, -4
 560 0004 DFF8B480 		ldr	r8, .L51+24
 561              		.loc 1 71 0
 562 0008 264F     		ldr	r7, .L51
 563              		.loc 1 66 0
 564 000a D8F80030 		ldr	r3, [r8]
 565              		.loc 1 72 0
 566 000e 264E     		ldr	r6, .L51+4
 567              		.loc 1 73 0
 568 0010 264D     		ldr	r5, .L51+8
 569              	.LBB89:
 570              	.LBB90:
ARM GAS  /var/folders/rz/lph8rwt12pb77g4kvq2dx3yc0000gn/T//ccdpDBnc.s 			page 11


 571              		.loc 4 143 0
 572 0012 2748     		ldr	r0, .L51+12
 573              	.LBE90:
 574              	.LBE89:
 575              		.loc 1 66 0
 576 0014 82B0     		sub	sp, sp, #8
 577              		.cfi_def_cfa_offset 40
 578              		.loc 1 66 0
 579 0016 0193     		str	r3, [sp, #4]
 580              	.LVL35:
 581              	.LBB92:
 582              	.LBB91:
 583              		.loc 4 143 0
 584 0018 FFF7FEFF 		bl	chSemWait
 585              	.LVL36:
 586              	.LBE91:
 587              	.LBE92:
 588              		.loc 1 71 0
 589 001c 0023     		movs	r3, #0
 590 001e 3B80     		strh	r3, [r7]	@ movhi
 591              		.loc 1 72 0
 592 0020 3380     		strh	r3, [r6]	@ movhi
 593              		.loc 1 73 0
 594 0022 2B80     		strh	r3, [r5]	@ movhi
 595              		.loc 1 76 0
 596 0024 FFF7FEFF 		bl	dcmi_get_last_image_ptr
 597              	.LVL37:
 598 0028 2249     		ldr	r1, .L51+16
 599 002a B7F800E0 		ldrh	lr, [r7]
 600 002e B6F800C0 		ldrh	ip, [r6]
 601 0032 2C88     		ldrh	r4, [r5]
 602 0034 0130     		adds	r0, r0, #1
 603 0036 01F5A069 		add	r9, r1, #1280
 604              	.LVL38:
 605              	.L46:
 606              	.LBB93:
 607              		.loc 1 81 0 discriminator 3
 608 003a 10F8013C 		ldrb	r3, [r0, #-1]	@ zero_extendqisi2
 609 003e 01F8013C 		strb	r3, [r1, #-1]
 610              		.loc 1 82 0 discriminator 3
 611 0042 10F8022B 		ldrb	r2, [r0], #2	@ zero_extendqisi2
 612 0046 01F8022B 		strb	r2, [r1], #2
 613              		.loc 1 89 0 discriminator 3
 614 004a 4FEAC30A 		lsl	r10, r3, #3
 615 004e 0AF0380A 		and	r10, r10, #56
 616              		.loc 1 92 0 discriminator 3
 617 0052 0AEB521A 		add	r10, r10, r2, lsr #5
 618              		.loc 1 93 0 discriminator 3
 619 0056 02F01F02 		and	r2, r2, #31
 620              		.loc 1 91 0 discriminator 3
 621 005a 0EEBD303 		add	r3, lr, r3, lsr #3
 622              		.loc 1 92 0 discriminator 3
 623 005e D444     		add	ip, ip, r10
 624              		.loc 1 93 0 discriminator 3
 625 0060 2244     		add	r2, r2, r4
 626              		.loc 1 79 0 discriminator 3
 627 0062 4945     		cmp	r1, r9
ARM GAS  /var/folders/rz/lph8rwt12pb77g4kvq2dx3yc0000gn/T//ccdpDBnc.s 			page 12


 628              		.loc 1 91 0 discriminator 3
 629 0064 1FFA83FE 		uxth	lr, r3
 630              		.loc 1 92 0 discriminator 3
 631 0068 1FFA8CFC 		uxth	ip, ip
 632              		.loc 1 93 0 discriminator 3
 633 006c 94B2     		uxth	r4, r2
 634              		.loc 1 79 0 discriminator 3
 635 006e E4D1     		bne	.L46
 636              	.LBE93:
 637              		.loc 1 97 0
 638 0070 114A     		ldr	r2, .L51+20
 639              		.loc 1 100 0
 640 0072 DDF80490 		ldr	r9, [sp, #4]
 641 0076 D8F80080 		ldr	r8, [r8]
 642              		.loc 1 97 0
 643 007a A2FB0E13 		umull	r1, r3, r2, lr
 644              		.loc 1 98 0
 645 007e A2FB0C01 		umull	r0, r1, r2, ip
 646              		.loc 1 99 0
 647 0082 A2FB0402 		umull	r0, r2, r2, r4
 648              		.loc 1 98 0
 649 0086 490A     		lsrs	r1, r1, #9
 650              		.loc 1 97 0
 651 0088 580A     		lsrs	r0, r3, #9
 652              		.loc 1 100 0
 653 008a C145     		cmp	r9, r8
 654              		.loc 1 99 0
 655 008c 4FEA5223 		lsr	r3, r2, #9
 656              		.loc 1 97 0
 657 0090 3880     		strh	r0, [r7]	@ movhi
 658              		.loc 1 98 0
 659 0092 3180     		strh	r1, [r6]	@ movhi
 660              		.loc 1 99 0
 661 0094 2B80     		strh	r3, [r5]	@ movhi
 662              		.loc 1 100 0
 663 0096 02D1     		bne	.L50
 664 0098 02B0     		add	sp, sp, #8
 665              		.cfi_remember_state
 666              		.cfi_def_cfa_offset 32
 667              		@ sp needed
 668 009a BDE8F087 		pop	{r4, r5, r6, r7, r8, r9, r10, pc}
 669              	.L50:
 670              		.cfi_restore_state
 671 009e FFF7FEFF 		bl	__stack_chk_fail
 672              	.LVL39:
 673              	.L52:
 674 00a2 00BF     		.align	2
 675              	.L51:
 676 00a4 00000000 		.word	.LANCHOR6
 677 00a8 00000000 		.word	.LANCHOR7
 678 00ac 00000000 		.word	.LANCHOR8
 679 00b0 00000000 		.word	.LANCHOR1
 680 00b4 01000000 		.word	.LANCHOR9+1
 681 00b8 CDCCCCCC 		.word	-858993459
 682 00bc 00000000 		.word	__stack_chk_guard
 683              		.cfi_endproc
 684              	.LFE261:
ARM GAS  /var/folders/rz/lph8rwt12pb77g4kvq2dx3yc0000gn/T//ccdpDBnc.s 			page 13


 685              		.size	process_image, .-process_image
 686              		.section	.text.manage_robot,"ax",%progbits
 687              		.align	1
 688              		.p2align 4,,15
 689              		.global	manage_robot
 690              		.syntax unified
 691              		.thumb
 692              		.thumb_func
 693              		.fpu fpv4-sp-d16
 694              		.type	manage_robot, %function
 695              	manage_robot:
 696              	.LFB262:
 697              		.loc 1 102 0
 698              		.cfi_startproc
 699              		@ args = 0, pretend = 0, frame = 8
 700              		@ frame_needed = 0, uses_anonymous_args = 0
 701 0000 30B5     		push	{r4, r5, lr}
 702              		.cfi_def_cfa_offset 12
 703              		.cfi_offset 4, -12
 704              		.cfi_offset 5, -8
 705              		.cfi_offset 14, -4
 706              	.LBB104:
 707              	.LBB105:
 708              		.loc 1 42 0
 709 0002 494D     		ldr	r5, .L77
 710              	.LBE105:
 711              	.LBE104:
 712              		.loc 1 102 0
 713 0004 494C     		ldr	r4, .L77+4
 714              		.loc 1 103 0
 715 0006 2B78     		ldrb	r3, [r5]	@ zero_extendqisi2
 716              		.loc 1 102 0
 717 0008 2268     		ldr	r2, [r4]
 718 000a 83B0     		sub	sp, sp, #12
 719              		.cfi_def_cfa_offset 24
 720              		.loc 1 102 0
 721 000c 0192     		str	r2, [sp, #4]
 722              		.loc 1 103 0
 723 000e ABB1     		cbz	r3, .L54
 724              		.loc 1 104 0
 725 0010 474B     		ldr	r3, .L77+8
 726              		.loc 1 105 0
 727 0012 019A     		ldr	r2, [sp, #4]
 728              		.loc 1 104 0
 729 0014 1B78     		ldrb	r3, [r3]	@ zero_extendqisi2
 730 0016 022B     		cmp	r3, #2
 731              		.loc 1 105 0
 732 0018 2368     		ldr	r3, [r4]
 733              		.loc 1 104 0
 734 001a 06D8     		bhi	.L55
 735              		.loc 1 105 0
 736 001c 9A42     		cmp	r2, r3
 737 001e 5DD1     		bne	.L73
 738              		.loc 1 139 0
 739 0020 03B0     		add	sp, sp, #12
 740              		.cfi_remember_state
 741              		.cfi_def_cfa_offset 12
ARM GAS  /var/folders/rz/lph8rwt12pb77g4kvq2dx3yc0000gn/T//ccdpDBnc.s 			page 14


 742              		@ sp needed
 743 0022 BDE83040 		pop	{r4, r5, lr}
 744              		.cfi_restore 14
 745              		.cfi_restore 5
 746              		.cfi_restore 4
 747              		.cfi_def_cfa_offset 0
 748              		.loc 1 105 0
 749 0026 FFF7FEBF 		b	dance
 750              	.LVL40:
 751              	.L55:
 752              		.cfi_restore_state
 753              		.loc 1 107 0
 754 002a 9A42     		cmp	r2, r3
 755 002c 08BF     		it	eq
 756 002e 0020     		moveq	r0, #0
 757 0030 54D1     		bne	.L73
 758              	.L71:
 759              		.loc 1 139 0
 760 0032 03B0     		add	sp, sp, #12
 761              		.cfi_remember_state
 762              		.cfi_def_cfa_offset 12
 763              		@ sp needed
 764 0034 BDE83040 		pop	{r4, r5, lr}
 765              		.cfi_restore 14
 766              		.cfi_restore 5
 767              		.cfi_restore 4
 768              		.cfi_def_cfa_offset 0
 769              	.LBB106:
 770              	.LBB107:
 771              		.loc 1 136 0
 772 0038 FFF7FEBF 		b	set_desired_speed
 773              	.LVL41:
 774              	.L54:
 775              		.cfi_restore_state
 776              	.LBE107:
 777              	.LBE106:
 778              		.loc 1 110 0
 779 003c FFF7FEFF 		bl	get_front_wall
 780              	.LVL42:
 781 0040 0028     		cmp	r0, #0
 782 0042 33D0     		beq	.L53
 783              	.LBB120:
 784              	.LBB116:
 785              		.loc 1 111 0
 786 0044 3B4B     		ldr	r3, .L77+12
 787 0046 1B88     		ldrh	r3, [r3]
 788 0048 1A1F     		subs	r2, r3, #4
 789 004a 022A     		cmp	r2, #2
 790 004c 16D8     		bhi	.L59
 791              		.loc 1 112 0
 792 004e 3A4A     		ldr	r2, .L77+16
 793              		.loc 1 111 0
 794 0050 1288     		ldrh	r2, [r2]
 795 0052 053A     		subs	r2, r2, #5
 796 0054 022A     		cmp	r2, #2
 797 0056 11D8     		bhi	.L59
 798              		.loc 1 113 0
ARM GAS  /var/folders/rz/lph8rwt12pb77g4kvq2dx3yc0000gn/T//ccdpDBnc.s 			page 15


 799 0058 384A     		ldr	r2, .L77+20
 800              		.loc 1 112 0
 801 005a 1288     		ldrh	r2, [r2]
 802 005c 033A     		subs	r2, r2, #3
 803 005e 022A     		cmp	r2, #2
 804 0060 0CD8     		bhi	.L59
 805              	.LVL43:
 806              		.loc 1 115 0
 807 0062 019A     		ldr	r2, [sp, #4]
 808 0064 2368     		ldr	r3, [r4]
 809              	.LBB108:
 810              	.LBB109:
 811              		.loc 1 46 0
 812 0066 0121     		movs	r1, #1
 813              	.LBE109:
 814              	.LBE108:
 815              		.loc 1 115 0
 816 0068 9A42     		cmp	r2, r3
 817              	.LBB111:
 818              	.LBB110:
 819              		.loc 1 46 0
 820 006a 2970     		strb	r1, [r5]
 821              	.LVL44:
 822              	.LBE110:
 823              	.LBE111:
 824              		.loc 1 115 0
 825 006c 08BF     		it	eq
 826 006e 0320     		moveq	r0, #3
 827 0070 34D1     		bne	.L73
 828              	.L72:
 829              	.LBE116:
 830              	.LBE120:
 831              		.loc 1 139 0
 832 0072 03B0     		add	sp, sp, #12
 833              		.cfi_remember_state
 834              		.cfi_def_cfa_offset 12
 835              		@ sp needed
 836 0074 BDE83040 		pop	{r4, r5, lr}
 837              		.cfi_restore 14
 838              		.cfi_restore 5
 839              		.cfi_restore 4
 840              		.cfi_def_cfa_offset 0
 841              	.LBB121:
 842              	.LBB117:
 843              		.loc 1 122 0
 844 0078 FFF7FEBF 		b	set_led_color
 845              	.LVL45:
 846              	.L59:
 847              		.cfi_restore_state
 848              		.loc 1 117 0
 849 007c 5A1F     		subs	r2, r3, #5
 850 007e 022A     		cmp	r2, #2
 851 0080 04D8     		bhi	.L61
 852              		.loc 1 118 0
 853 0082 2D4A     		ldr	r2, .L77+16
 854              		.loc 1 117 0
 855 0084 1288     		ldrh	r2, [r2]
ARM GAS  /var/folders/rz/lph8rwt12pb77g4kvq2dx3yc0000gn/T//ccdpDBnc.s 			page 16


 856 0086 113A     		subs	r2, r2, #17
 857 0088 022A     		cmp	r2, #2
 858 008a 29D9     		bls	.L74
 859              	.L61:
 860              		.loc 1 123 0
 861 008c 5A1E     		subs	r2, r3, #1
 862 008e 022A     		cmp	r2, #2
 863 0090 04D8     		bhi	.L63
 864              		.loc 1 124 0
 865 0092 294A     		ldr	r2, .L77+16
 866              		.loc 1 123 0
 867 0094 1288     		ldrh	r2, [r2]
 868 0096 093A     		subs	r2, r2, #9
 869 0098 032A     		cmp	r2, #3
 870 009a 30D9     		bls	.L75
 871              	.L63:
 872              		.loc 1 130 0
 873 009c 033B     		subs	r3, r3, #3
 874 009e 032B     		cmp	r3, #3
 875 00a0 04D8     		bhi	.L53
 876              		.loc 1 131 0
 877 00a2 254B     		ldr	r3, .L77+16
 878              		.loc 1 130 0
 879 00a4 1B88     		ldrh	r3, [r3]
 880 00a6 123B     		subs	r3, r3, #18
 881 00a8 032B     		cmp	r3, #3
 882 00aa 05D9     		bls	.L76
 883              	.L53:
 884              	.LBE117:
 885              	.LBE121:
 886              		.loc 1 139 0
 887 00ac 019A     		ldr	r2, [sp, #4]
 888 00ae 2368     		ldr	r3, [r4]
 889 00b0 9A42     		cmp	r2, r3
 890 00b2 13D1     		bne	.L73
 891 00b4 03B0     		add	sp, sp, #12
 892              		.cfi_remember_state
 893              		.cfi_def_cfa_offset 12
 894              		@ sp needed
 895 00b6 30BD     		pop	{r4, r5, pc}
 896              	.L76:
 897              		.cfi_restore_state
 898              	.LBB122:
 899              	.LBB118:
 900              		.loc 1 132 0
 901 00b8 204B     		ldr	r3, .L77+20
 902              		.loc 1 131 0
 903 00ba 1B88     		ldrh	r3, [r3]
 904 00bc 073B     		subs	r3, r3, #7
 905 00be 042B     		cmp	r3, #4
 906 00c0 F4D8     		bhi	.L53
 907              		.loc 1 134 0
 908 00c2 4FF4FA60 		mov	r0, #2000
 909 00c6 FFF7FEFF 		bl	set_toggle_period_rgb_led
 910              	.LVL46:
 911              		.loc 1 135 0
 912 00ca 0420     		movs	r0, #4
ARM GAS  /var/folders/rz/lph8rwt12pb77g4kvq2dx3yc0000gn/T//ccdpDBnc.s 			page 17


 913 00cc FFF7FEFF 		bl	set_led_color
 914              	.LVL47:
 915              		.loc 1 136 0
 916 00d0 019A     		ldr	r2, [sp, #4]
 917 00d2 2368     		ldr	r3, [r4]
 918 00d4 9A42     		cmp	r2, r3
 919 00d6 08BF     		it	eq
 920 00d8 DC20     		moveq	r0, #220
 921 00da AAD0     		beq	.L71
 922              	.L73:
 923              	.LBE118:
 924              	.LBE122:
 925              		.loc 1 139 0
 926 00dc FFF7FEFF 		bl	__stack_chk_fail
 927              	.LVL48:
 928              	.L74:
 929              	.LBB123:
 930              	.LBB119:
 931              		.loc 1 119 0
 932 00e0 164A     		ldr	r2, .L77+20
 933              		.loc 1 118 0
 934 00e2 1288     		ldrh	r2, [r2]
 935 00e4 093A     		subs	r2, r2, #9
 936 00e6 022A     		cmp	r2, #2
 937 00e8 D0D8     		bhi	.L61
 938              	.LVL49:
 939              		.loc 1 122 0
 940 00ea 019A     		ldr	r2, [sp, #4]
 941 00ec 2368     		ldr	r3, [r4]
 942              	.LBB112:
 943              	.LBB113:
 944              		.loc 1 38 0
 945 00ee 1449     		ldr	r1, .L77+24
 946 00f0 0120     		movs	r0, #1
 947              	.LBE113:
 948              	.LBE112:
 949              		.loc 1 122 0
 950 00f2 9A42     		cmp	r2, r3
 951              	.LBB115:
 952              	.LBB114:
 953              		.loc 1 38 0
 954 00f4 0870     		strb	r0, [r1]
 955              	.LVL50:
 956              	.LBE114:
 957              	.LBE115:
 958              		.loc 1 122 0
 959 00f6 08BF     		it	eq
 960 00f8 0020     		moveq	r0, #0
 961 00fa BAD0     		beq	.L72
 962 00fc EEE7     		b	.L73
 963              	.L75:
 964              		.loc 1 125 0
 965 00fe 0F4A     		ldr	r2, .L77+20
 966              		.loc 1 124 0
 967 0100 1288     		ldrh	r2, [r2]
 968 0102 083A     		subs	r2, r2, #8
 969 0104 022A     		cmp	r2, #2
ARM GAS  /var/folders/rz/lph8rwt12pb77g4kvq2dx3yc0000gn/T//ccdpDBnc.s 			page 18


 970 0106 C9D8     		bhi	.L63
 971              		.loc 1 127 0
 972 0108 4FF4FA70 		mov	r0, #500
 973 010c FFF7FEFF 		bl	set_toggle_period_rgb_led
 974              	.LVL51:
 975              		.loc 1 128 0
 976 0110 0220     		movs	r0, #2
 977 0112 FFF7FEFF 		bl	set_led_color
 978              	.LVL52:
 979              		.loc 1 129 0
 980 0116 019A     		ldr	r2, [sp, #4]
 981 0118 2368     		ldr	r3, [r4]
 982 011a 9A42     		cmp	r2, r3
 983 011c 08BF     		it	eq
 984 011e 4FF4DC70 		moveq	r0, #440
 985 0122 86D0     		beq	.L71
 986 0124 DAE7     		b	.L73
 987              	.L78:
 988 0126 00BF     		.align	2
 989              	.L77:
 990 0128 00000000 		.word	.LANCHOR4
 991 012c 00000000 		.word	__stack_chk_guard
 992 0130 00000000 		.word	.LANCHOR5
 993 0134 00000000 		.word	.LANCHOR6
 994 0138 00000000 		.word	.LANCHOR7
 995 013c 00000000 		.word	.LANCHOR8
 996 0140 00000000 		.word	.LANCHOR3
 997              	.LBE119:
 998              	.LBE123:
 999              		.cfi_endproc
 1000              	.LFE262:
 1001              		.size	manage_robot, .-manage_robot
 1002              		.section	.text.ManageCamera,"ax",%progbits
 1003              		.align	1
 1004              		.p2align 4,,15
 1005              		.syntax unified
 1006              		.thumb
 1007              		.thumb_func
 1008              		.fpu fpv4-sp-d16
 1009              		.type	ManageCamera, %function
 1010              	ManageCamera:
 1011              	.LFB264:
 1012              		.loc 1 169 0
 1013              		.cfi_startproc
 1014              		@ Volatile: function does not return.
 1015              		@ args = 0, pretend = 0, frame = 8
 1016              		@ frame_needed = 0, uses_anonymous_args = 0
 1017              	.LVL53:
 1018 0000 00B5     		push	{lr}
 1019              		.cfi_def_cfa_offset 4
 1020              		.cfi_offset 14, -4
 1021              	.LBB124:
 1022              	.LBB125:
 1023              		.loc 2 135 0
 1024 0002 064A     		ldr	r2, .L83
 1025              	.LBE125:
 1026              	.LBE124:
ARM GAS  /var/folders/rz/lph8rwt12pb77g4kvq2dx3yc0000gn/T//ccdpDBnc.s 			page 19


 1027              		.loc 1 169 0
 1028 0004 064B     		ldr	r3, .L83+4
 1029              	.LBB128:
 1030              	.LBB126:
 1031              		.loc 2 135 0
 1032 0006 9269     		ldr	r2, [r2, #24]
 1033 0008 0649     		ldr	r1, .L83+8
 1034              	.LBE126:
 1035              	.LBE128:
 1036              		.loc 1 169 0
 1037 000a 1B68     		ldr	r3, [r3]
 1038              	.LBB129:
 1039              	.LBB127:
 1040              		.loc 2 135 0
 1041 000c 9161     		str	r1, [r2, #24]
 1042              	.LBE127:
 1043              	.LBE129:
 1044              		.loc 1 169 0
 1045 000e 83B0     		sub	sp, sp, #12
 1046              		.cfi_def_cfa_offset 16
 1047              		.loc 1 169 0
 1048 0010 0193     		str	r3, [sp, #4]
 1049              	.LVL54:
 1050              	.L80:
 1051              		.loc 1 175 0 discriminator 1
 1052 0012 FFF7FEFF 		bl	process_image
 1053              	.LVL55:
 1054              		.loc 1 176 0 discriminator 1
 1055 0016 FFF7FEFF 		bl	manage_robot
 1056              	.LVL56:
 1057 001a FAE7     		b	.L80
 1058              	.L84:
 1059              		.align	2
 1060              	.L83:
 1061 001c 00000000 		.word	ch
 1062 0020 00000000 		.word	__stack_chk_guard
 1063 0024 00000000 		.word	.LANCHOR10
 1064              		.cfi_endproc
 1065              	.LFE264:
 1066              		.size	ManageCamera, .-ManageCamera
 1067              		.section	.text.manage_camera_start,"ax",%progbits
 1068              		.align	1
 1069              		.p2align 4,,15
 1070              		.global	manage_camera_start
 1071              		.syntax unified
 1072              		.thumb
 1073              		.thumb_func
 1074              		.fpu fpv4-sp-d16
 1075              		.type	manage_camera_start, %function
 1076              	manage_camera_start:
 1077              	.LFB265:
 1078              		.loc 1 185 0
 1079              		.cfi_startproc
 1080              		@ args = 0, pretend = 0, frame = 8
 1081              		@ frame_needed = 0, uses_anonymous_args = 0
 1082 0000 30B5     		push	{r4, r5, lr}
 1083              		.cfi_def_cfa_offset 12
ARM GAS  /var/folders/rz/lph8rwt12pb77g4kvq2dx3yc0000gn/T//ccdpDBnc.s 			page 20


 1084              		.cfi_offset 4, -12
 1085              		.cfi_offset 5, -8
 1086              		.cfi_offset 14, -4
 1087 0002 0E4C     		ldr	r4, .L89
 1088              		.loc 1 186 0
 1089 0004 0E4B     		ldr	r3, .L89+4
 1090              		.loc 1 185 0
 1091 0006 2268     		ldr	r2, [r4]
 1092              		.loc 1 186 0
 1093 0008 0E48     		ldr	r0, .L89+8
 1094              		.loc 1 185 0
 1095 000a 85B0     		sub	sp, sp, #20
 1096              		.cfi_def_cfa_offset 32
 1097              		.loc 1 186 0
 1098 000c 0025     		movs	r5, #0
 1099              		.loc 1 185 0
 1100 000e 0392     		str	r2, [sp, #12]
 1101              		.loc 1 186 0
 1102 0010 4FF4AF61 		mov	r1, #1400
 1103 0014 4022     		movs	r2, #64
 1104 0016 0095     		str	r5, [sp]
 1105 0018 FFF7FEFF 		bl	chThdCreateStatic
 1106              	.LVL57:
 1107              		.loc 1 187 0
 1108 001c 0A4B     		ldr	r3, .L89+12
 1109 001e 0095     		str	r5, [sp]
 1110 0020 4022     		movs	r2, #64
 1111 0022 0A48     		ldr	r0, .L89+16
 1112 0024 4FF4AF61 		mov	r1, #1400
 1113 0028 FFF7FEFF 		bl	chThdCreateStatic
 1114              	.LVL58:
 1115              		.loc 1 188 0
 1116 002c 039A     		ldr	r2, [sp, #12]
 1117 002e 2368     		ldr	r3, [r4]
 1118 0030 9A42     		cmp	r2, r3
 1119 0032 01D1     		bne	.L88
 1120 0034 05B0     		add	sp, sp, #20
 1121              		.cfi_remember_state
 1122              		.cfi_def_cfa_offset 12
 1123              		@ sp needed
 1124 0036 30BD     		pop	{r4, r5, pc}
 1125              	.L88:
 1126              		.cfi_restore_state
 1127 0038 FFF7FEFF 		bl	__stack_chk_fail
 1128              	.LVL59:
 1129              	.L90:
 1130              		.align	2
 1131              	.L89:
 1132 003c 00000000 		.word	__stack_chk_guard
 1133 0040 00000000 		.word	ManageCamera
 1134 0044 00000000 		.word	.LANCHOR11
 1135 0048 00000000 		.word	CaptureImage
 1136 004c 00000000 		.word	.LANCHOR12
 1137              		.cfi_endproc
 1138              	.LFE265:
 1139              		.size	manage_camera_start, .-manage_camera_start
 1140              		.section	.bss.counter_dance,"aw",%nobits
ARM GAS  /var/folders/rz/lph8rwt12pb77g4kvq2dx3yc0000gn/T//ccdpDBnc.s 			page 21


 1141              		.set	.LANCHOR5,. + 0
 1142              		.type	counter_dance, %object
 1143              		.size	counter_dance, 1
 1144              	counter_dance:
 1145 0000 00       		.space	1
 1146              		.section	.bss.image,"aw",%nobits
 1147              		.align	2
 1148              		.set	.LANCHOR9,. + 0
 1149              		.type	image, %object
 1150              		.size	image, 1280
 1151              	image:
 1152 0000 00000000 		.space	1280
 1152      00000000 
 1152      00000000 
 1152      00000000 
 1152      00000000 
 1153              		.section	.bss.mean_blue,"aw",%nobits
 1154              		.align	1
 1155              		.set	.LANCHOR8,. + 0
 1156              		.type	mean_blue, %object
 1157              		.size	mean_blue, 2
 1158              	mean_blue:
 1159 0000 0000     		.space	2
 1160              		.section	.bss.mean_green,"aw",%nobits
 1161              		.align	1
 1162              		.set	.LANCHOR7,. + 0
 1163              		.type	mean_green, %object
 1164              		.size	mean_green, 2
 1165              	mean_green:
 1166 0000 0000     		.space	2
 1167              		.section	.bss.mean_red,"aw",%nobits
 1168              		.align	1
 1169              		.set	.LANCHOR6,. + 0
 1170              		.type	mean_red, %object
 1171              		.size	mean_red, 2
 1172              	mean_red:
 1173 0000 0000     		.space	2
 1174              		.section	.bss.see_red,"aw",%nobits
 1175              		.set	.LANCHOR4,. + 0
 1176              		.type	see_red, %object
 1177              		.size	see_red, 1
 1178              	see_red:
 1179 0000 00       		.space	1
 1180              		.section	.bss.see_white,"aw",%nobits
 1181              		.set	.LANCHOR3,. + 0
 1182              		.type	see_white, %object
 1183              		.size	see_white, 1
 1184              	see_white:
 1185 0000 00       		.space	1
 1186              		.section	.bss.waCaptureImage,"aw",%nobits
 1187              		.align	3
 1188              		.set	.LANCHOR12,. + 0
 1189              		.type	waCaptureImage, %object
 1190              		.size	waCaptureImage, 1400
 1191              	waCaptureImage:
 1192 0000 00000000 		.space	1400
 1192      00000000 
ARM GAS  /var/folders/rz/lph8rwt12pb77g4kvq2dx3yc0000gn/T//ccdpDBnc.s 			page 22


 1192      00000000 
 1192      00000000 
 1192      00000000 
 1193              		.section	.bss.waManageCamera,"aw",%nobits
 1194              		.align	3
 1195              		.set	.LANCHOR11,. + 0
 1196              		.type	waManageCamera, %object
 1197              		.size	waManageCamera, 1400
 1198              	waManageCamera:
 1199 0000 00000000 		.space	1400
 1199      00000000 
 1199      00000000 
 1199      00000000 
 1199      00000000 
 1200              		.section	.data.image_ready_sem,"aw",%progbits
 1201              		.align	2
 1202              		.set	.LANCHOR1,. + 0
 1203              		.type	image_ready_sem, %object
 1204              		.size	image_ready_sem, 12
 1205              	image_ready_sem:
 1206 0000 00000000 		.word	image_ready_sem
 1207 0004 00000000 		.word	image_ready_sem
 1208 0008 00000000 		.word	0
 1209              		.section	.rodata.__FUNCTION__.10799,"a",%progbits
 1210              		.align	2
 1211              		.set	.LANCHOR0,. + 0
 1212              		.type	__FUNCTION__.10799, %object
 1213              		.size	__FUNCTION__.10799, 13
 1214              	__FUNCTION__.10799:
 1215 0000 43617074 		.ascii	"CaptureImage\000"
 1215      75726549 
 1215      6D616765 
 1215      00
 1216              		.section	.rodata.__FUNCTION__.10805,"a",%progbits
 1217              		.align	2
 1218              		.set	.LANCHOR10,. + 0
 1219              		.type	__FUNCTION__.10805, %object
 1220              		.size	__FUNCTION__.10805, 13
 1221              	__FUNCTION__.10805:
 1222 0000 4D616E61 		.ascii	"ManageCamera\000"
 1222      67654361 
 1222      6D657261 
 1222      00
 1223              		.section	.rodata.__func__.7163,"a",%progbits
 1224              		.align	2
 1225              		.set	.LANCHOR2,. + 0
 1226              		.type	__func__.7163, %object
 1227              		.size	__func__.7163, 12
 1228              	__func__.7163:
 1229 0000 63685379 		.ascii	"chSysUnlock\000"
 1229      73556E6C 
 1229      6F636B00 
 1230              		.text
 1231              	.Letext0:
 1232              		.file 6 "/Applications/Eclipse_e-puck2.app/Contents/Eclipse_e-puck2/Tools/gcc-arm-none-eabi-7-2017
 1233              		.file 7 "/Applications/Eclipse_e-puck2.app/Contents/Eclipse_e-puck2/Tools/gcc-arm-none-eabi-7-2017
 1234              		.file 8 "/Applications/Eclipse_e-puck2.app/Contents/Eclipse_e-puck2/Tools/gcc-arm-none-eabi-7-2017
ARM GAS  /var/folders/rz/lph8rwt12pb77g4kvq2dx3yc0000gn/T//ccdpDBnc.s 			page 23


 1235              		.file 9 "../../lib/e-puck2_main-processor/ChibiOS//os/rt/ports/ARMCMx/compilers/GCC/chtypes.h"
 1236              		.file 10 "../../lib/e-puck2_main-processor/ChibiOS//os/rt/include/chsystypes.h"
 1237              		.file 11 "../../lib/e-puck2_main-processor/ChibiOS//os/rt/include/chschd.h"
 1238              		.file 12 "../../lib/e-puck2_main-processor/ChibiOS//os/ext/CMSIS/include/core_cm4.h"
 1239              		.file 13 "../../lib/e-puck2_main-processor/ChibiOS//os/ext/CMSIS/ST/system_stm32f4xx.h"
 1240              		.file 14 "../../lib/e-puck2_main-processor/ChibiOS//os/ext/CMSIS/ST/stm32f407xx.h"
 1241              		.file 15 "../../lib/e-puck2_main-processor/ChibiOS//os/rt/ports/ARMCMx/chcore.h"
 1242              		.file 16 "../../lib/e-puck2_main-processor/ChibiOS//os/rt/ports/ARMCMx/chcore_v7m.h"
 1243              		.file 17 "../../lib/e-puck2_main-processor/ChibiOS//os/rt/include/chdebug.h"
 1244              		.file 18 "../../lib/e-puck2_main-processor/ChibiOS//os/rt/include/chtm.h"
 1245              		.file 19 "../../lib/e-puck2_main-processor/ChibiOS//os/rt/include/chstats.h"
 1246              		.file 20 "../../lib/e-puck2_main-processor/ChibiOS//os/rt/include/chsem.h"
 1247              		.file 21 "../../lib/e-puck2_main-processor/ChibiOS//os/rt/include/chmtx.h"
 1248              		.file 22 "../../lib/e-puck2_main-processor/ChibiOS//os/rt/include/chevents.h"
 1249              		.file 23 "../../lib/e-puck2_main-processor/ChibiOS//os/rt/include/chqueues.h"
 1250              		.file 24 "../../lib/e-puck2_main-processor/ChibiOS//os/hal/ports/STM32/STM32F4xx/stm32_dma.h"
 1251              		.file 25 "../../lib/e-puck2_main-processor/ChibiOS//os/hal/include/hal_ioblock.h"
 1252              		.file 26 "../../lib/e-puck2_main-processor/ChibiOS//os/hal/ports/STM32/LLD/GPIOv2/pal_lld.h"
 1253              		.file 27 "../../lib/e-puck2_main-processor/ChibiOS//os/hal/include/adc.h"
 1254              		.file 28 "../../lib/e-puck2_main-processor/ChibiOS//os/hal/ports/STM32/STM32F4xx/adc_lld.h"
 1255              		.file 29 "../../lib/e-puck2_main-processor/ChibiOS//os/hal/include/can.h"
 1256              		.file 30 "../../lib/e-puck2_main-processor/ChibiOS//os/hal/ports/STM32/LLD/can_lld.h"
 1257              		.file 31 "../../lib/e-puck2_main-processor/ChibiOS//os/hal/include/dac.h"
 1258              		.file 32 "../../lib/e-puck2_main-processor/ChibiOS//os/hal/ports/STM32/LLD/DACv1/dac_lld.h"
 1259              		.file 33 "../../lib/e-puck2_main-processor/ChibiOS//os/hal/include/ext.h"
 1260              		.file 34 "../../lib/e-puck2_main-processor/ChibiOS//os/hal/ports/STM32/LLD/ext_lld.h"
 1261              		.file 35 "../../lib/e-puck2_main-processor/ChibiOS//os/hal/include/gpt.h"
 1262              		.file 36 "../../lib/e-puck2_main-processor/ChibiOS//os/hal/ports/STM32/LLD/TIMv1/gpt_lld.h"
 1263              		.file 37 "../../lib/e-puck2_main-processor/ChibiOS//os/hal/ports/STM32/LLD/TIMv1/stm32_tim.h"
 1264              		.file 38 "../../lib/e-puck2_main-processor/ChibiOS//os/hal/include/i2c.h"
 1265              		.file 39 "../../lib/e-puck2_main-processor/ChibiOS//os/hal/ports/STM32/LLD/I2Cv1/i2c_lld.h"
 1266              		.file 40 "../../lib/e-puck2_main-processor/ChibiOS//os/hal/include/i2s.h"
 1267              		.file 41 "../../lib/e-puck2_main-processor/ChibiOS//os/hal/ports/STM32/LLD/SPIv1/i2s_lld.h"
 1268              		.file 42 "../../lib/e-puck2_main-processor/ChibiOS//os/hal/include/pwm.h"
 1269              		.file 43 "../../lib/e-puck2_main-processor/ChibiOS//os/hal/ports/STM32/LLD/TIMv1/pwm_lld.h"
 1270              		.file 44 "../../lib/e-puck2_main-processor/ChibiOS//os/hal/include/serial.h"
 1271              		.file 45 "../../lib/e-puck2_main-processor/ChibiOS//os/hal/ports/STM32/LLD/USARTv1/serial_lld.h"
 1272              		.file 46 "../../lib/e-puck2_main-processor/ChibiOS//os/hal/include/sdc.h"
 1273              		.file 47 "../../lib/e-puck2_main-processor/ChibiOS//os/hal/ports/STM32/LLD/sdc_lld.h"
 1274              		.file 48 "../../lib/e-puck2_main-processor/ChibiOS//os/hal/include/spi.h"
 1275              		.file 49 "../../lib/e-puck2_main-processor/ChibiOS//os/hal/ports/STM32/LLD/SPIv1/spi_lld.h"
 1276              		.file 50 "../../lib/e-puck2_main-processor/ChibiOS//os/hal/include/usb.h"
 1277              		.file 51 "../../lib/e-puck2_main-processor/ChibiOS//os/hal/ports/STM32/LLD/OTGv1/usb_lld.h"
 1278              		.file 52 "../../lib/e-puck2_main-processor/ChibiOS//os/hal/ports/STM32/LLD/OTGv1/stm32_otg.h"
 1279              		.file 53 "/Applications/Eclipse_e-puck2.app/Contents/Eclipse_e-puck2/Tools/gcc-arm-none-eabi-7-201
 1280              		.file 54 "../../lib/e-puck2_main-processor/src/msgbus/messagebus.h"
 1281              		.file 55 "../../lib/e-puck2_main-processor/ChibiOS_ext/os/hal/include/../ports/STM32/STM32F4xx/dcm
 1282              		.file 56 "../../lib/e-puck2_main-processor/src/camera/po8030.h"
 1283              		.file 57 "../../lib/e-puck2_main-processor/src/camera/dcmi_camera.h"
 1284              		.file 58 "./main.h"
 1285              		.file 59 "../../lib/e-puck2_main-processor/ChibiOS//os/rt/include/chthreads.h"
 1286              		.file 60 "./manage_motors.h"
 1287              		.file 61 "./find_path_to_exit.h"