ARM GAS  /var/folders/rz/lph8rwt12pb77g4kvq2dx3yc0000gn/T//cccFbs3Y.s 			page 1


   1              		.cpu cortex-m4
   2              		.eabi_attribute 27, 1
   3              		.eabi_attribute 28, 1
   4              		.eabi_attribute 20, 1
   5              		.eabi_attribute 21, 1
   6              		.eabi_attribute 23, 3
   7              		.eabi_attribute 24, 1
   8              		.eabi_attribute 25, 1
   9              		.eabi_attribute 26, 1
  10              		.eabi_attribute 30, 2
  11              		.eabi_attribute 34, 1
  12              		.eabi_attribute 18, 4
  13              		.file	"pi_regulator_distance_right_wall.c"
  14              		.text
  15              	.Ltext0:
  16              		.cfi_sections	.debug_frame
  17              		.global	__aeabi_i2d
  18              		.global	__aeabi_dcmplt
  19              		.section	.text.pi_regulator,"ax",%progbits
  20              		.align	1
  21              		.p2align 4,,15
  22              		.global	pi_regulator
  23              		.syntax unified
  24              		.thumb
  25              		.thumb_func
  26              		.fpu fpv4-sp-d16
  27              		.type	pi_regulator, %function
  28              	pi_regulator:
  29              	.LFB257:
  30              		.file 1 "pi_regulator_distance_right_wall.c"
  31              		.loc 1 31 0
  32              		.cfi_startproc
  33              		@ args = 0, pretend = 0, frame = 8
  34              		@ frame_needed = 0, uses_anonymous_args = 0
  35              	.LVL0:
  36 0000 30B5     		push	{r4, r5, lr}
  37              		.cfi_def_cfa_offset 12
  38              		.cfi_offset 4, -12
  39              		.cfi_offset 5, -8
  40              		.cfi_offset 14, -4
  41 0002 294D     		ldr	r5, .L18
  42 0004 83B0     		sub	sp, sp, #12
  43              		.cfi_def_cfa_offset 24
  44              		.loc 1 35 0
  45 0006 441A     		subs	r4, r0, r1
  46              		.loc 1 31 0
  47 0008 2B68     		ldr	r3, [r5]
  48 000a 0193     		str	r3, [sp, #4]
  49              	.LVL1:
  50              		.loc 1 38 0
  51 000c 2046     		mov	r0, r4
  52              	.LVL2:
  53 000e FFF7FEFF 		bl	__aeabi_i2d
  54              	.LVL3:
  55 0012 21F00043 		bic	r3, r1, #-2147483648
  56 0016 1946     		mov	r1, r3
  57 0018 0022     		movs	r2, #0
ARM GAS  /var/folders/rz/lph8rwt12pb77g4kvq2dx3yc0000gn/T//cccFbs3Y.s 			page 2


  58 001a 244B     		ldr	r3, .L18+4
  59 001c FFF7FEFF 		bl	__aeabi_dcmplt
  60              	.LVL4:
  61 0020 A8BB     		cbnz	r0, .L2
  62              		.loc 1 42 0
  63 0022 234A     		ldr	r2, .L18+8
  64              		.loc 1 45 0
  65 0024 9FED237A 		vldr.32	s14, .L18+12
  66              		.loc 1 42 0
  67 0028 1368     		ldr	r3, [r2]
  68 002a 2344     		add	r3, r3, r4
  69              		.loc 1 45 0
  70 002c 07EE903A 		vmov	s15, r3	@ int
  71 0030 F8EEE77A 		vcvt.f32.s32	s15, s15
  72 0034 F4EEC77A 		vcmpe.f32	s15, s14
  73 0038 F1EE10FA 		vmrs	APSR_nzcv, FPSCR
  74 003c 1ADD     		ble	.L12
  75              		.loc 1 46 0
  76 003e 4FF49D73 		mov	r3, #314
  77 0042 9FED1D7A 		vldr.32	s14, .L18+16
  78 0046 1360     		str	r3, [r2]
  79              	.L5:
  80              		.loc 1 51 0
  81 0048 4FF44870 		mov	r0, #800
  82 004c 00FB04F3 		mul	r3, r0, r4
  83 0050 07EE903A 		vmov	s15, r3	@ int
  84 0054 F8EEE77A 		vcvt.f32.s32	s15, s15
  85 0058 77EE877A 		vadd.f32	s15, s15, s14
  86 005c F5EEC07A 		vcmpe.f32	s15, #0
  87 0060 F1EE10FA 		vmrs	APSR_nzcv, FPSCR
  88 0064 12DD     		ble	.L15
  89              		.loc 1 52 0
  90 0066 0020     		movs	r0, #0
  91              	.L7:
  92              		.loc 1 58 0
  93 0068 019A     		ldr	r2, [sp, #4]
  94 006a 2B68     		ldr	r3, [r5]
  95 006c 9A42     		cmp	r2, r3
  96 006e 18D1     		bne	.L16
  97 0070 03B0     		add	sp, sp, #12
  98              		.cfi_remember_state
  99              		.cfi_def_cfa_offset 12
 100              		@ sp needed
 101 0072 30BD     		pop	{r4, r5, pc}
 102              	.LVL5:
 103              	.L12:
 104              		.cfi_restore_state
 105              		.loc 1 47 0
 106 0074 9FED117A 		vldr.32	s14, .L18+20
 107 0078 F4EEC77A 		vcmpe.f32	s15, s14
 108 007c F1EE10FA 		vmrs	APSR_nzcv, FPSCR
 109 0080 07D5     		bpl	.L17
 110              		.loc 1 48 0
 111 0082 0F4B     		ldr	r3, .L18+24
 112 0084 9FED0F7A 		vldr.32	s14, .L18+28
 113 0088 1360     		str	r3, [r2]
 114 008a DDE7     		b	.L5
ARM GAS  /var/folders/rz/lph8rwt12pb77g4kvq2dx3yc0000gn/T//cccFbs3Y.s 			page 3


 115              	.L15:
 116              		.loc 1 53 0
 117 008c 07D4     		bmi	.L10
 118              	.L2:
 119              		.loc 1 56 0
 120 008e 0220     		movs	r0, #2
 121 0090 EAE7     		b	.L7
 122              	.L17:
 123 0092 B0EE0C7A 		vmov.f32	s14, #3.5e+0
 124              		.loc 1 42 0
 125 0096 1360     		str	r3, [r2]
 126 0098 27EE877A 		vmul.f32	s14, s15, s14
 127 009c D4E7     		b	.L5
 128              	.L10:
 129              		.loc 1 54 0
 130 009e 0120     		movs	r0, #1
 131 00a0 E2E7     		b	.L7
 132              	.L16:
 133              		.loc 1 58 0
 134 00a2 FFF7FEFF 		bl	__stack_chk_fail
 135              	.LVL6:
 136              	.L19:
 137 00a6 00BF     		.align	2
 138              	.L18:
 139 00a8 00000000 		.word	__stack_chk_guard
 140 00ac 00007940 		.word	1081671680
 141 00b0 00000000 		.word	.LANCHOR0
 142 00b4 92249D43 		.word	1134371986
 143 00b8 00608944 		.word	1149853696
 144 00bc 92249DC3 		.word	3281855634
 145 00c0 C6FEFFFF 		.word	-314
 146 00c4 006089C4 		.word	3297337344
 147              		.cfi_endproc
 148              	.LFE257:
 149              		.size	pi_regulator, .-pi_regulator
 150              		.section	.text.PiRegulator,"ax",%progbits
 151              		.align	1
 152              		.p2align 4,,15
 153              		.syntax unified
 154              		.thumb
 155              		.thumb_func
 156              		.fpu fpv4-sp-d16
 157              		.type	PiRegulator, %function
 158              	PiRegulator:
 159              	.LFB258:
 160              		.loc 1 61 0
 161              		.cfi_startproc
 162              		@ args = 0, pretend = 0, frame = 8
 163              		@ frame_needed = 0, uses_anonymous_args = 0
 164              	.LVL7:
 165 0000 2DE9F043 		push	{r4, r5, r6, r7, r8, r9, lr}
 166              		.cfi_def_cfa_offset 28
 167              		.cfi_offset 4, -28
 168              		.cfi_offset 5, -24
 169              		.cfi_offset 6, -20
 170              		.cfi_offset 7, -16
 171              		.cfi_offset 8, -12
ARM GAS  /var/folders/rz/lph8rwt12pb77g4kvq2dx3yc0000gn/T//cccFbs3Y.s 			page 4


 172              		.cfi_offset 9, -8
 173              		.cfi_offset 14, -4
 174              	.LBB48:
 175              	.LBB49:
 176              		.file 2 "../../lib/e-puck2_main-processor/ChibiOS//os/rt/include/chregistry.h"
 177              		.loc 2 135 0
 178 0004 224C     		ldr	r4, .L28
 179              	.LBE49:
 180              	.LBE48:
 181              		.loc 1 61 0
 182 0006 234B     		ldr	r3, .L28+4
 183              	.LBB52:
 184              	.LBB50:
 185              		.loc 2 135 0
 186 0008 A269     		ldr	r2, [r4, #24]
 187 000a 2349     		ldr	r1, .L28+8
 188              	.LBE50:
 189              	.LBE52:
 190              		.loc 1 61 0
 191 000c 1B68     		ldr	r3, [r3]
 192              	.LBB53:
 193              	.LBB54:
 194              	.LBB55:
 195              	.LBB56:
 196              		.file 3 "../../lib/e-puck2_main-processor/ChibiOS//os/rt/include/chsys.h"
 197              		.loc 3 367 0
 198 000e DFF88C90 		ldr	r9, .L28+12
 199              	.LBE56:
 200              	.LBE55:
 201              	.LBE54:
 202              	.LBE53:
 203              	.LBB82:
 204              	.LBB51:
 205              		.loc 2 135 0
 206 0012 9161     		str	r1, [r2, #24]
 207              	.LBE51:
 208              	.LBE82:
 209              		.loc 1 61 0
 210 0014 83B0     		sub	sp, sp, #12
 211              		.cfi_def_cfa_offset 40
 212              	.LBB83:
 213              	.LBB79:
 214              	.LBB65:
 215              	.LBB66:
 216              	.LBB67:
 217              	.LBB68:
 218              	.LBB69:
 219              		.file 4 "../../lib/e-puck2_main-processor/ChibiOS//os/ext/CMSIS/include/core_cmFunc.h"
 220              		.loc 4 546 0
 221 0016 4FF02008 		mov	r8, #32
 222              	.LBE69:
 223              	.LBE68:
 224              	.LBE67:
 225              	.LBE66:
 226              	.LBE65:
 227              	.LBE79:
 228              	.LBE83:
ARM GAS  /var/folders/rz/lph8rwt12pb77g4kvq2dx3yc0000gn/T//cccFbs3Y.s 			page 5


 229              		.loc 1 61 0
 230 001a 0193     		str	r3, [sp, #4]
 231              	.LVL8:
 232              	.LBB84:
 233              	.LBB80:
 234              	.LBB74:
 235              	.LBB63:
 236              	.LBB57:
 237              	.LBB58:
 238              	.LBB59:
 239              		.loc 4 546 0
 240 001c 0027     		movs	r7, #0
 241 001e 06E0     		b	.L24
 242              	.LVL9:
 243              	.L22:
 244              	.LBE59:
 245              	.LBE58:
 246              	.LBE57:
 247              	.LBE63:
 248              	.LBE74:
 249              	.LBE80:
 250              	.LBE84:
 251              		.loc 1 80 0
 252 0020 0128     		cmp	r0, #1
 253 0022 2DD0     		beq	.L27
 254              	.LVL10:
 255              	.L23:
 256              		.loc 1 87 0
 257 0024 05F5FA71 		add	r1, r5, #500
 258 0028 2846     		mov	r0, r5
 259 002a FFF7FEFF 		bl	chThdSleepUntilWindowed
 260              	.LVL11:
 261              	.L24:
 262              	.LBB85:
 263              	.LBB81:
 264              	.LBB75:
 265              	.LBB73:
 266              	.LBB72:
 267              	.LBB71:
 268              	.LBB70:
 269              		.loc 4 546 0
 270              		.syntax unified
 271              	@ 546 "../../lib/e-puck2_main-processor/ChibiOS//os/ext/CMSIS/include/core_cmFunc.h" 1
 272 002e 88F31188 		MSR basepri, r8
 273              	@ 0 "" 2
 274              	.LVL12:
 275              		.thumb
 276              		.syntax unified
 277              	.LBE70:
 278              	.LBE71:
 279              	.LBE72:
 280              		.loc 3 349 0
 281 0032 FFF7FEFF 		bl	_stats_start_measure_crit_thd
 282              	.LVL13:
 283              		.loc 3 350 0
 284 0036 FFF7FEFF 		bl	_dbg_check_lock
 285              	.LVL14:
ARM GAS  /var/folders/rz/lph8rwt12pb77g4kvq2dx3yc0000gn/T//cccFbs3Y.s 			page 6


 286              	.LBE73:
 287              	.LBE75:
 288              	.LBB76:
 289              	.LBB77:
 290              		.file 5 "../../lib/e-puck2_main-processor/ChibiOS//os/rt/include/chvt.h"
 291              		.loc 5 231 0
 292 003a A56A     		ldr	r5, [r4, #40]
 293              	.LBE77:
 294              	.LBE76:
 295              	.LBB78:
 296              	.LBB64:
 297              		.loc 3 360 0
 298 003c FFF7FEFF 		bl	_dbg_check_unlock
 299              	.LVL15:
 300              		.loc 3 361 0
 301 0040 FFF7FEFF 		bl	_stats_stop_measure_crit_thd
 302              	.LVL16:
 303              		.loc 3 367 0
 304 0044 2368     		ldr	r3, [r4]
 305 0046 A342     		cmp	r3, r4
 306 0048 07D0     		beq	.L21
 307 004a A269     		ldr	r2, [r4, #24]
 308 004c 9B68     		ldr	r3, [r3, #8]
 309 004e 9268     		ldr	r2, [r2, #8]
 310 0050 9A42     		cmp	r2, r3
 311 0052 02D2     		bcs	.L21
 312 0054 4846     		mov	r0, r9
 313 0056 FFF7FEFF 		bl	chSysHalt
 314              	.LVL17:
 315              	.L21:
 316              	.LBB62:
 317              	.LBB61:
 318              	.LBB60:
 319              		.loc 4 546 0
 320              		.syntax unified
 321              	@ 546 "../../lib/e-puck2_main-processor/ChibiOS//os/ext/CMSIS/include/core_cmFunc.h" 1
 322 005a 87F31188 		MSR basepri, r7
 323              	@ 0 "" 2
 324              	.LVL18:
 325              		.thumb
 326              		.syntax unified
 327              	.LBE60:
 328              	.LBE61:
 329              	.LBE62:
 330              	.LBE64:
 331              	.LBE78:
 332              	.LBE81:
 333              	.LBE85:
 334              		.loc 1 74 0
 335 005e 0220     		movs	r0, #2
 336 0060 FFF7FEFF 		bl	get_prox
 337              	.LVL19:
 338 0064 4FF43E71 		mov	r1, #760
 339 0068 FFF7FEFF 		bl	pi_regulator
 340              	.LVL20:
 341              		.loc 1 76 0
 342 006c 0646     		mov	r6, r0
ARM GAS  /var/folders/rz/lph8rwt12pb77g4kvq2dx3yc0000gn/T//cccFbs3Y.s 			page 7


 343 006e 0028     		cmp	r0, #0
 344 0070 D6D1     		bne	.L22
 345              		.loc 1 78 0
 346 0072 0220     		movs	r0, #2
 347              	.LVL21:
 348 0074 FFF7FEFF 		bl	turn_left
 349              	.LVL22:
 350              		.loc 1 79 0
 351 0078 3046     		mov	r0, r6
 352 007a FFF7FEFF 		bl	set_direction
 353              	.LVL23:
 354 007e D1E7     		b	.L23
 355              	.LVL24:
 356              	.L27:
 357              		.loc 1 82 0
 358 0080 0220     		movs	r0, #2
 359              	.LVL25:
 360 0082 FFF7FEFF 		bl	turn_right
 361              	.LVL26:
 362              		.loc 1 83 0
 363 0086 0020     		movs	r0, #0
 364 0088 FFF7FEFF 		bl	set_direction
 365              	.LVL27:
 366 008c CAE7     		b	.L23
 367              	.L29:
 368 008e 00BF     		.align	2
 369              	.L28:
 370 0090 00000000 		.word	ch
 371 0094 00000000 		.word	__stack_chk_guard
 372 0098 00000000 		.word	.LANCHOR1
 373 009c 00000000 		.word	.LANCHOR2
 374              		.cfi_endproc
 375              	.LFE258:
 376              		.size	PiRegulator, .-PiRegulator
 377              		.section	.text.pi_regulator_start,"ax",%progbits
 378              		.align	1
 379              		.p2align 4,,15
 380              		.global	pi_regulator_start
 381              		.syntax unified
 382              		.thumb
 383              		.thumb_func
 384              		.fpu fpv4-sp-d16
 385              		.type	pi_regulator_start, %function
 386              	pi_regulator_start:
 387              	.LFB259:
 388              		.loc 1 91 0
 389              		.cfi_startproc
 390              		@ args = 0, pretend = 0, frame = 8
 391              		@ frame_needed = 0, uses_anonymous_args = 0
 392 0000 10B5     		push	{r4, lr}
 393              		.cfi_def_cfa_offset 8
 394              		.cfi_offset 4, -8
 395              		.cfi_offset 14, -4
 396 0002 0A4C     		ldr	r4, .L34
 397              		.loc 1 92 0
 398 0004 0A4B     		ldr	r3, .L34+4
 399              		.loc 1 91 0
ARM GAS  /var/folders/rz/lph8rwt12pb77g4kvq2dx3yc0000gn/T//cccFbs3Y.s 			page 8


 400 0006 2268     		ldr	r2, [r4]
 401              		.loc 1 92 0
 402 0008 0A48     		ldr	r0, .L34+8
 403              		.loc 1 91 0
 404 000a 84B0     		sub	sp, sp, #16
 405              		.cfi_def_cfa_offset 24
 406              		.loc 1 92 0
 407 000c 4FF41E71 		mov	r1, #632
 408              		.loc 1 91 0
 409 0010 0392     		str	r2, [sp, #12]
 410              		.loc 1 92 0
 411 0012 0022     		movs	r2, #0
 412 0014 0092     		str	r2, [sp]
 413 0016 4022     		movs	r2, #64
 414 0018 FFF7FEFF 		bl	chThdCreateStatic
 415              	.LVL28:
 416              		.loc 1 93 0
 417 001c 039A     		ldr	r2, [sp, #12]
 418 001e 2368     		ldr	r3, [r4]
 419 0020 9A42     		cmp	r2, r3
 420 0022 01D1     		bne	.L33
 421 0024 04B0     		add	sp, sp, #16
 422              		.cfi_remember_state
 423              		.cfi_def_cfa_offset 8
 424              		@ sp needed
 425 0026 10BD     		pop	{r4, pc}
 426              	.L33:
 427              		.cfi_restore_state
 428 0028 FFF7FEFF 		bl	__stack_chk_fail
 429              	.LVL29:
 430              	.L35:
 431              		.align	2
 432              	.L34:
 433 002c 00000000 		.word	__stack_chk_guard
 434 0030 00000000 		.word	PiRegulator
 435 0034 00000000 		.word	.LANCHOR3
 436              		.cfi_endproc
 437              	.LFE259:
 438              		.size	pi_regulator_start, .-pi_regulator_start
 439              		.section	.bss.sum_error.11098,"aw",%nobits
 440              		.align	2
 441              		.set	.LANCHOR0,. + 0
 442              		.type	sum_error.11098, %object
 443              		.size	sum_error.11098, 4
 444              	sum_error.11098:
 445 0000 00000000 		.space	4
 446              		.section	.bss.waPiRegulator,"aw",%nobits
 447              		.align	3
 448              		.set	.LANCHOR3,. + 0
 449              		.type	waPiRegulator, %object
 450              		.size	waPiRegulator, 632
 451              	waPiRegulator:
 452 0000 00000000 		.space	632
 452      00000000 
 452      00000000 
 452      00000000 
 452      00000000 
ARM GAS  /var/folders/rz/lph8rwt12pb77g4kvq2dx3yc0000gn/T//cccFbs3Y.s 			page 9


 453              		.section	.rodata.__FUNCTION__.11103,"a",%progbits
 454              		.align	2
 455              		.set	.LANCHOR1,. + 0
 456              		.type	__FUNCTION__.11103, %object
 457              		.size	__FUNCTION__.11103, 12
 458              	__FUNCTION__.11103:
 459 0000 50695265 		.ascii	"PiRegulator\000"
 459      67756C61 
 459      746F7200 
 460              		.section	.rodata.__func__.7153,"a",%progbits
 461              		.align	2
 462              		.set	.LANCHOR2,. + 0
 463              		.type	__func__.7153, %object
 464              		.size	__func__.7153, 12
 465              	__func__.7153:
 466 0000 63685379 		.ascii	"chSysUnlock\000"
 466      73556E6C 
 466      6F636B00 
 467              		.text
 468              	.Letext0:
 469              		.file 6 "/Applications/Eclipse_e-puck2.app/Contents/Eclipse_e-puck2/Tools/gcc-arm-none-eabi-7-2017
 470              		.file 7 "/Applications/Eclipse_e-puck2.app/Contents/Eclipse_e-puck2/Tools/gcc-arm-none-eabi-7-2017
 471              		.file 8 "/Applications/Eclipse_e-puck2.app/Contents/Eclipse_e-puck2/Tools/gcc-arm-none-eabi-7-2017
 472              		.file 9 "../../lib/e-puck2_main-processor/ChibiOS//os/rt/ports/ARMCMx/compilers/GCC/chtypes.h"
 473              		.file 10 "../../lib/e-puck2_main-processor/ChibiOS//os/rt/include/chsystypes.h"
 474              		.file 11 "../../lib/e-puck2_main-processor/ChibiOS//os/rt/include/chschd.h"
 475              		.file 12 "../../lib/e-puck2_main-processor/ChibiOS//os/ext/CMSIS/include/core_cm4.h"
 476              		.file 13 "../../lib/e-puck2_main-processor/ChibiOS//os/ext/CMSIS/ST/system_stm32f4xx.h"
 477              		.file 14 "../../lib/e-puck2_main-processor/ChibiOS//os/ext/CMSIS/ST/stm32f407xx.h"
 478              		.file 15 "../../lib/e-puck2_main-processor/ChibiOS//os/rt/ports/ARMCMx/chcore.h"
 479              		.file 16 "../../lib/e-puck2_main-processor/ChibiOS//os/rt/ports/ARMCMx/chcore_v7m.h"
 480              		.file 17 "../../lib/e-puck2_main-processor/ChibiOS//os/rt/include/chdebug.h"
 481              		.file 18 "../../lib/e-puck2_main-processor/ChibiOS//os/rt/include/chtm.h"
 482              		.file 19 "../../lib/e-puck2_main-processor/ChibiOS//os/rt/include/chstats.h"
 483              		.file 20 "../../lib/e-puck2_main-processor/ChibiOS//os/rt/include/chsem.h"
 484              		.file 21 "../../lib/e-puck2_main-processor/ChibiOS//os/rt/include/chmtx.h"
 485              		.file 22 "../../lib/e-puck2_main-processor/ChibiOS//os/rt/include/chevents.h"
 486              		.file 23 "../../lib/e-puck2_main-processor/ChibiOS//os/rt/include/chqueues.h"
 487              		.file 24 "../../lib/e-puck2_main-processor/ChibiOS//os/hal/ports/STM32/STM32F4xx/stm32_dma.h"
 488              		.file 25 "../../lib/e-puck2_main-processor/ChibiOS//os/hal/include/hal_ioblock.h"
 489              		.file 26 "../../lib/e-puck2_main-processor/ChibiOS//os/hal/ports/STM32/LLD/GPIOv2/pal_lld.h"
 490              		.file 27 "../../lib/e-puck2_main-processor/ChibiOS//os/hal/include/adc.h"
 491              		.file 28 "../../lib/e-puck2_main-processor/ChibiOS//os/hal/ports/STM32/STM32F4xx/adc_lld.h"
 492              		.file 29 "../../lib/e-puck2_main-processor/ChibiOS//os/hal/include/can.h"
 493              		.file 30 "../../lib/e-puck2_main-processor/ChibiOS//os/hal/ports/STM32/LLD/can_lld.h"
 494              		.file 31 "../../lib/e-puck2_main-processor/ChibiOS//os/hal/include/dac.h"
 495              		.file 32 "../../lib/e-puck2_main-processor/ChibiOS//os/hal/ports/STM32/LLD/DACv1/dac_lld.h"
 496              		.file 33 "../../lib/e-puck2_main-processor/ChibiOS//os/hal/include/ext.h"
 497              		.file 34 "../../lib/e-puck2_main-processor/ChibiOS//os/hal/ports/STM32/LLD/ext_lld.h"
 498              		.file 35 "../../lib/e-puck2_main-processor/ChibiOS//os/hal/include/gpt.h"
 499              		.file 36 "../../lib/e-puck2_main-processor/ChibiOS//os/hal/ports/STM32/LLD/TIMv1/gpt_lld.h"
 500              		.file 37 "../../lib/e-puck2_main-processor/ChibiOS//os/hal/ports/STM32/LLD/TIMv1/stm32_tim.h"
 501              		.file 38 "../../lib/e-puck2_main-processor/ChibiOS//os/hal/include/i2c.h"
 502              		.file 39 "../../lib/e-puck2_main-processor/ChibiOS//os/hal/ports/STM32/LLD/I2Cv1/i2c_lld.h"
 503              		.file 40 "../../lib/e-puck2_main-processor/ChibiOS//os/hal/include/i2s.h"
 504              		.file 41 "../../lib/e-puck2_main-processor/ChibiOS//os/hal/ports/STM32/LLD/SPIv1/i2s_lld.h"
 505              		.file 42 "../../lib/e-puck2_main-processor/ChibiOS//os/hal/include/pwm.h"
ARM GAS  /var/folders/rz/lph8rwt12pb77g4kvq2dx3yc0000gn/T//cccFbs3Y.s 			page 10


 506              		.file 43 "../../lib/e-puck2_main-processor/ChibiOS//os/hal/ports/STM32/LLD/TIMv1/pwm_lld.h"
 507              		.file 44 "../../lib/e-puck2_main-processor/ChibiOS//os/hal/include/serial.h"
 508              		.file 45 "../../lib/e-puck2_main-processor/ChibiOS//os/hal/ports/STM32/LLD/USARTv1/serial_lld.h"
 509              		.file 46 "../../lib/e-puck2_main-processor/ChibiOS//os/hal/include/sdc.h"
 510              		.file 47 "../../lib/e-puck2_main-processor/ChibiOS//os/hal/ports/STM32/LLD/sdc_lld.h"
 511              		.file 48 "../../lib/e-puck2_main-processor/ChibiOS//os/hal/include/spi.h"
 512              		.file 49 "../../lib/e-puck2_main-processor/ChibiOS//os/hal/ports/STM32/LLD/SPIv1/spi_lld.h"
 513              		.file 50 "../../lib/e-puck2_main-processor/ChibiOS//os/hal/include/usb.h"
 514              		.file 51 "../../lib/e-puck2_main-processor/ChibiOS//os/hal/ports/STM32/LLD/OTGv1/usb_lld.h"
 515              		.file 52 "../../lib/e-puck2_main-processor/ChibiOS//os/hal/ports/STM32/LLD/OTGv1/stm32_otg.h"
 516              		.file 53 "../../lib/e-puck2_main-processor/ChibiOS//os/hal/include/serial_usb.h"
 517              		.file 54 "/Applications/Eclipse_e-puck2.app/Contents/Eclipse_e-puck2/Tools/gcc-arm-none-eabi-7-201
 518              		.file 55 "/Applications/Eclipse_e-puck2.app/Contents/Eclipse_e-puck2/Tools/gcc-arm-none-eabi-7-201
 519              		.file 56 "/Applications/Eclipse_e-puck2.app/Contents/Eclipse_e-puck2/Tools/gcc-arm-none-eabi-7-201
 520              		.file 57 "../../lib/e-puck2_main-processor/src/msgbus/messagebus.h"
 521              		.file 58 "./main.h"
 522              		.file 59 "/Applications/Eclipse_e-puck2.app/Contents/Eclipse_e-puck2/Tools/gcc-arm-none-eabi-7-201
 523              		.file 60 "./manage_motors.h"
 524              		.file 61 "/Applications/Eclipse_e-puck2.app/Contents/Eclipse_e-puck2/Tools/gcc-arm-none-eabi-7-201
 525              		.file 62 "../../lib/e-puck2_main-processor/src/usbcfg.h"
 526              		.file 63 "../../lib/e-puck2_main-processor/ChibiOS//os/rt/include/chthreads.h"
 527              		.file 64 "../../lib/e-puck2_main-processor/src/sensors/proximity.h"