ARM GAS  /var/folders/rz/lph8rwt12pb77g4kvq2dx3yc0000gn/T//cccI2v1u.s 			page 1


   1              		.cpu cortex-m4
   2              		.eabi_attribute 27, 1
   3              		.eabi_attribute 28, 1
   4              		.eabi_attribute 20, 1
   5              		.eabi_attribute 21, 1
   6              		.eabi_attribute 23, 3
   7              		.eabi_attribute 24, 1
   8              		.eabi_attribute 25, 1
   9              		.eabi_attribute 26, 1
  10              		.eabi_attribute 30, 2
  11              		.eabi_attribute 34, 1
  12              		.eabi_attribute 18, 4
  13              		.file	"process_image.c"
  14              		.text
  15              	.Ltext0:
  16              		.cfi_sections	.debug_frame
  17              		.section	.text.chprintf.constprop.0,"ax",%progbits
  18              		.align	1
  19              		.p2align 4,,15
  20              		.syntax unified
  21              		.thumb
  22              		.thumb_func
  23              		.fpu fpv4-sp-d16
  24              		.type	chprintf.constprop.0, %function
  25              	chprintf.constprop.0:
  26              	.LFB261:
  27              		.file 1 "../../lib/e-puck2_main-processor/ChibiOS//os/hal/lib/streams/chprintf.h"
  28              		.loc 1 69 0
  29              		.cfi_startproc
  30              		@ args = 4, pretend = 12, frame = 8
  31              		@ frame_needed = 0, uses_anonymous_args = 1
  32              	.LVL0:
  33 0000 0EB4     		push	{r1, r2, r3}
  34              		.cfi_def_cfa_offset 12
  35              		.cfi_offset 1, -12
  36              		.cfi_offset 2, -8
  37              		.cfi_offset 3, -4
  38 0002 10B5     		push	{r4, lr}
  39              		.cfi_def_cfa_offset 20
  40              		.cfi_offset 4, -20
  41              		.cfi_offset 14, -16
  42 0004 83B0     		sub	sp, sp, #12
  43              		.cfi_def_cfa_offset 32
  44              		.loc 1 69 0
  45 0006 05AA     		add	r2, sp, #20
  46 0008 094C     		ldr	r4, .L6
  47 000a 52F8041B 		ldr	r1, [r2], #4
  48 000e 2368     		ldr	r3, [r4]
  49              		.loc 1 74 0
  50 0010 0848     		ldr	r0, .L6+4
  51              	.LVL1:
  52              		.loc 1 73 0
  53 0012 0092     		str	r2, [sp]
  54              		.loc 1 69 0
  55 0014 0193     		str	r3, [sp, #4]
  56              	.LVL2:
  57              		.loc 1 74 0
ARM GAS  /var/folders/rz/lph8rwt12pb77g4kvq2dx3yc0000gn/T//cccI2v1u.s 			page 2


  58 0016 FFF7FEFF 		bl	chvprintf
  59              	.LVL3:
  60              		.loc 1 78 0
  61 001a 019A     		ldr	r2, [sp, #4]
  62 001c 2368     		ldr	r3, [r4]
  63 001e 9A42     		cmp	r2, r3
  64 0020 04D1     		bne	.L5
  65 0022 03B0     		add	sp, sp, #12
  66              		.cfi_remember_state
  67              		.cfi_def_cfa_offset 20
  68              		@ sp needed
  69 0024 BDE81040 		pop	{r4, lr}
  70              		.cfi_restore 14
  71              		.cfi_restore 4
  72              		.cfi_def_cfa_offset 12
  73 0028 03B0     		add	sp, sp, #12
  74              		.cfi_restore 3
  75              		.cfi_restore 2
  76              		.cfi_restore 1
  77              		.cfi_def_cfa_offset 0
  78 002a 7047     		bx	lr
  79              	.L5:
  80              		.cfi_restore_state
  81 002c FFF7FEFF 		bl	__stack_chk_fail
  82              	.LVL4:
  83              	.L7:
  84              		.align	2
  85              	.L6:
  86 0030 00000000 		.word	__stack_chk_guard
  87 0034 00000000 		.word	SDU1
  88              		.cfi_endproc
  89              	.LFE261:
  90              		.size	chprintf.constprop.0, .-chprintf.constprop.0
  91              		.section	.text.ProcessImage,"ax",%progbits
  92              		.align	1
  93              		.p2align 4,,15
  94              		.syntax unified
  95              		.thumb
  96              		.thumb_func
  97              		.fpu fpv4-sp-d16
  98              		.type	ProcessImage, %function
  99              	ProcessImage:
 100              	.LFB258:
 101              		.file 2 "process_image.c"
 102              		.loc 2 46 0
 103              		.cfi_startproc
 104              		@ args = 0, pretend = 0, frame = 1288
 105              		@ frame_needed = 0, uses_anonymous_args = 0
 106              	.LVL5:
 107 0000 2DE9F04F 		push	{r4, r5, r6, r7, r8, r9, r10, fp, lr}
 108              		.cfi_def_cfa_offset 36
 109              		.cfi_offset 4, -36
 110              		.cfi_offset 5, -32
 111              		.cfi_offset 6, -28
 112              		.cfi_offset 7, -24
 113              		.cfi_offset 8, -20
 114              		.cfi_offset 9, -16
ARM GAS  /var/folders/rz/lph8rwt12pb77g4kvq2dx3yc0000gn/T//cccI2v1u.s 			page 3


 115              		.cfi_offset 10, -12
 116              		.cfi_offset 11, -8
 117              		.cfi_offset 14, -4
 118              	.LBB72:
 119              	.LBB73:
 120              		.file 3 "../../lib/e-puck2_main-processor/ChibiOS//os/rt/include/chregistry.h"
 121              		.loc 3 135 0
 122 0004 564A     		ldr	r2, .L34
 123              	.LBE73:
 124              	.LBE72:
 125              		.loc 2 46 0
 126 0006 574B     		ldr	r3, .L34+4
 127              	.LBB75:
 128              	.LBB74:
 129              		.loc 3 135 0
 130 0008 9269     		ldr	r2, [r2, #24]
 131 000a 5749     		ldr	r1, .L34+8
 132 000c 9161     		str	r1, [r2, #24]
 133              	.LBE74:
 134              	.LBE75:
 135              		.loc 2 46 0
 136 000e ADF20C5D 		subw	sp, sp, #1292
 137              		.cfi_def_cfa_offset 1328
 138              		.loc 2 52 0
 139 0012 01AE     		add	r6, sp, #4
 140              		.loc 2 46 0
 141 0014 1B68     		ldr	r3, [r3]
 142 0016 CDF80435 		str	r3, [sp, #1284]
 143              		.loc 2 52 0
 144 001a 3046     		mov	r0, r6
 145              	.LVL6:
 146 001c 4FF4A062 		mov	r2, #1280
 147 0020 0021     		movs	r1, #0
 148 0022 FFF7FEFF 		bl	memset
 149              	.LVL7:
 150 0026 0DF20458 		addw	r8, sp, #1284
 151              	.L9:
 152              	.LVL8:
 153              	.LBB76:
 154              	.LBB77:
 155              		.file 4 "../../lib/e-puck2_main-processor/ChibiOS//os/rt/include/chbsem.h"
 156              		.loc 4 143 0
 157 002a 5048     		ldr	r0, .L34+12
 158 002c FFF7FEFF 		bl	chSemWait
 159              	.LVL9:
 160              	.LBE77:
 161              	.LBE76:
 162              		.loc 2 61 0
 163 0030 4F4B     		ldr	r3, .L34+16
 164 0032 0022     		movs	r2, #0
 165 0034 1A60     		str	r2, [r3]
 166              		.loc 2 62 0
 167 0036 4F4B     		ldr	r3, .L34+20
 168 0038 1A60     		str	r2, [r3]
 169              		.loc 2 63 0
 170 003a 4F4B     		ldr	r3, .L34+24
 171 003c 1A60     		str	r2, [r3]
ARM GAS  /var/folders/rz/lph8rwt12pb77g4kvq2dx3yc0000gn/T//cccI2v1u.s 			page 4


 172              		.loc 2 65 0
 173 003e FFF7FEFF 		bl	dcmi_get_last_image_ptr
 174              	.LVL10:
 175 0042 0023     		movs	r3, #0
 176              	.LVL11:
 177              	.L10:
 178              	.LBB78:
 179              		.loc 2 71 0 discriminator 3
 180 0044 C25C     		ldrb	r2, [r0, r3]	@ zero_extendqisi2
 181 0046 F254     		strb	r2, [r6, r3]
 182              		.loc 2 72 0 discriminator 3
 183 0048 C118     		adds	r1, r0, r3
 184 004a F218     		adds	r2, r6, r3
 185 004c 0233     		adds	r3, r3, #2
 186              	.LVL12:
 187 004e 4978     		ldrb	r1, [r1, #1]	@ zero_extendqisi2
 188 0050 5170     		strb	r1, [r2, #1]
 189              		.loc 2 68 0 discriminator 3
 190 0052 B3F5A06F 		cmp	r3, #1280
 191 0056 F5D1     		bne	.L10
 192 0058 454B     		ldr	r3, .L34+16
 193 005a 1A68     		ldr	r2, [r3]
 194 005c 454B     		ldr	r3, .L34+20
 195 005e D3F800C0 		ldr	ip, [r3]
 196 0062 454B     		ldr	r3, .L34+24
 197              		.loc 2 68 0 is_stmt 0
 198 0064 4FF0000E 		mov	lr, #0
 199 0068 1F68     		ldr	r7, [r3]
 200 006a 1546     		mov	r5, r2
 201 006c F246     		mov	r10, lr
 202 006e F146     		mov	r9, lr
 203 0070 3146     		mov	r1, r6
 204              	.LVL13:
 205              	.L14:
 206              	.LBE78:
 207              	.LBB79:
 208              		.loc 2 78 0 is_stmt 1
 209 0072 4878     		ldrb	r0, [r1, #1]	@ zero_extendqisi2
 210              		.loc 2 77 0
 211 0074 0C78     		ldrb	r4, [r1]	@ zero_extendqisi2
 212              		.loc 2 79 0
 213 0076 8310     		asrs	r3, r0, #2
 214 0078 03F03803 		and	r3, r3, #56
 215 007c 04F0070B 		and	fp, r4, #7
 216              		.loc 2 90 0
 217 0080 7F2C     		cmp	r4, #127
 218              		.loc 2 79 0
 219 0082 43EA0B03 		orr	r3, r3, fp
 220              		.loc 2 78 0
 221 0086 00F01F00 		and	r0, r0, #31
 222              		.loc 2 91 0
 223 008a 84BF     		itt	hi
 224 008c 0135     		addhi	r5, r5, #1
 225 008e 4FF0010E 		movhi	lr, #1
 226              		.loc 2 93 0
 227 0092 202B     		cmp	r3, #32
 228 0094 01F10201 		add	r1, r1, #2
ARM GAS  /var/folders/rz/lph8rwt12pb77g4kvq2dx3yc0000gn/T//cccI2v1u.s 			page 5


 229              	.LVL14:
 230              		.loc 2 94 0
 231 0098 C4BF     		itt	gt
 232 009a 0CF1010C 		addgt	ip, ip, #1
 233 009e 4FF00109 		movgt	r9, #1
 234              		.loc 2 96 0
 235 00a2 0F28     		cmp	r0, #15
 236              		.loc 2 97 0
 237 00a4 84BF     		itt	hi
 238 00a6 0137     		addhi	r7, r7, #1
 239 00a8 4FF0010A 		movhi	r10, #1
 240              		.loc 2 75 0
 241 00ac 8845     		cmp	r8, r1
 242 00ae E0D1     		bne	.L14
 243 00b0 B9F1000F 		cmp	r9, #0
 244 00b4 4FD1     		bne	.L33
 245              	.L15:
 246 00b6 BAF1000F 		cmp	r10, #0
 247 00ba 01D0     		beq	.L16
 248 00bc 2E4B     		ldr	r3, .L34+24
 249 00be 1F60     		str	r7, [r3]
 250              	.L16:
 251 00c0 BEF1000F 		cmp	lr, #0
 252 00c4 02D0     		beq	.L17
 253 00c6 2A4B     		ldr	r3, .L34+16
 254              		.loc 2 97 0
 255 00c8 2A46     		mov	r2, r5
 256 00ca 1D60     		str	r5, [r3]
 257              	.L17:
 258              	.LBE79:
 259              		.loc 2 101 0
 260 00cc 294C     		ldr	r4, .L34+20
 261              		.loc 2 100 0
 262 00ce 2B49     		ldr	r1, .L34+28
 263 00d0 2B48     		ldr	r0, .L34+32
 264              		.loc 2 102 0
 265 00d2 294D     		ldr	r5, .L34+24
 266              		.loc 2 100 0
 267 00d4 FFF7FEFF 		bl	chprintf.constprop.0
 268              	.LVL15:
 269              		.loc 2 101 0
 270 00d8 2268     		ldr	r2, [r4]
 271 00da 2A49     		ldr	r1, .L34+36
 272 00dc 2848     		ldr	r0, .L34+32
 273 00de FFF7FEFF 		bl	chprintf.constprop.0
 274              	.LVL16:
 275              		.loc 2 102 0
 276 00e2 2A68     		ldr	r2, [r5]
 277 00e4 2849     		ldr	r1, .L34+40
 278 00e6 2648     		ldr	r0, .L34+32
 279 00e8 FFF7FEFF 		bl	chprintf.constprop.0
 280              	.LVL17:
 281              		.loc 2 104 0
 282 00ec 204B     		ldr	r3, .L34+16
 283 00ee 1B68     		ldr	r3, [r3]
 284 00f0 B3F5A07F 		cmp	r3, #320
 285 00f4 99DD     		ble	.L9
ARM GAS  /var/folders/rz/lph8rwt12pb77g4kvq2dx3yc0000gn/T//cccI2v1u.s 			page 6


 286              		.loc 2 104 0 is_stmt 0 discriminator 1
 287 00f6 2368     		ldr	r3, [r4]
 288 00f8 B3F5A07F 		cmp	r3, #320
 289 00fc 95DD     		ble	.L9
 290              		.loc 2 104 0 discriminator 2
 291 00fe 2B68     		ldr	r3, [r5]
 292 0100 B3F5A07F 		cmp	r3, #320
 293 0104 91DD     		ble	.L9
 294              		.loc 2 106 0 is_stmt 1
 295 0106 0120     		movs	r0, #1
 296 0108 FFF7FEFF 		bl	set_body_led
 297              	.LVL18:
 298              	.LBB80:
 299              	.LBB81:
 300              	.LBB82:
 301              	.LBB83:
 302              	.LBB84:
 303              	.LBB85:
 304              	.LBB86:
 305              		.file 5 "../../lib/e-puck2_main-processor/ChibiOS//os/ext/CMSIS/include/core_cmFunc.h"
 306              		.loc 5 546 0
 307 010c 2023     		movs	r3, #32
 308              		.syntax unified
 309              	@ 546 "../../lib/e-puck2_main-processor/ChibiOS//os/ext/CMSIS/include/core_cmFunc.h" 1
 310 010e 83F31188 		MSR basepri, r3
 311              	@ 0 "" 2
 312              	.LVL19:
 313              		.thumb
 314              		.syntax unified
 315              	.LBE86:
 316              	.LBE85:
 317              	.LBE84:
 318              		.file 6 "../../lib/e-puck2_main-processor/ChibiOS//os/rt/include/chsys.h"
 319              		.loc 6 349 0
 320 0112 FFF7FEFF 		bl	_stats_start_measure_crit_thd
 321              	.LVL20:
 322              		.loc 6 350 0
 323 0116 FFF7FEFF 		bl	_dbg_check_lock
 324              	.LVL21:
 325              	.LBE83:
 326              	.LBE82:
 327              	.LBB87:
 328              	.LBB88:
 329              		.file 7 "../../lib/e-puck2_main-processor/ChibiOS//os/rt/include/chvt.h"
 330              		.loc 7 231 0
 331 011a 114A     		ldr	r2, .L34
 332 011c 1546     		mov	r5, r2
 333 011e 946A     		ldr	r4, [r2, #40]
 334              	.LBE88:
 335              	.LBE87:
 336              	.LBB89:
 337              	.LBB90:
 338              		.loc 6 360 0
 339 0120 FFF7FEFF 		bl	_dbg_check_unlock
 340              	.LVL22:
 341              		.loc 6 361 0
 342 0124 FFF7FEFF 		bl	_stats_stop_measure_crit_thd
ARM GAS  /var/folders/rz/lph8rwt12pb77g4kvq2dx3yc0000gn/T//cccI2v1u.s 			page 7


 343              	.LVL23:
 344              		.loc 6 367 0
 345 0128 2B68     		ldr	r3, [r5]
 346 012a AB42     		cmp	r3, r5
 347 012c 07D0     		beq	.L19
 348 012e AA69     		ldr	r2, [r5, #24]
 349 0130 9B68     		ldr	r3, [r3, #8]
 350 0132 9268     		ldr	r2, [r2, #8]
 351 0134 9A42     		cmp	r2, r3
 352 0136 02D2     		bcs	.L19
 353 0138 1448     		ldr	r0, .L34+44
 354 013a FFF7FEFF 		bl	chSysHalt
 355              	.LVL24:
 356              	.L19:
 357              	.LBB91:
 358              	.LBB92:
 359              	.LBB93:
 360              		.loc 5 546 0
 361 013e 0023     		movs	r3, #0
 362              		.syntax unified
 363              	@ 546 "../../lib/e-puck2_main-processor/ChibiOS//os/ext/CMSIS/include/core_cmFunc.h" 1
 364 0140 83F31188 		MSR basepri, r3
 365              	@ 0 "" 2
 366              	.LVL25:
 367              		.thumb
 368              		.syntax unified
 369              	.LBE93:
 370              	.LBE92:
 371              	.LBE91:
 372              	.LBE90:
 373              	.LBE89:
 374              	.LBE81:
 375              	.LBE80:
 376              		.loc 2 108 0
 377 0144 04F5FA61 		add	r1, r4, #2000
 378 0148 2046     		mov	r0, r4
 379 014a FFF7FEFF 		bl	chThdSleepUntilWindowed
 380              	.LVL26:
 381              		.loc 2 109 0
 382 014e 0020     		movs	r0, #0
 383 0150 FFF7FEFF 		bl	set_body_led
 384              	.LVL27:
 385 0154 69E7     		b	.L9
 386              	.L33:
 387 0156 074B     		ldr	r3, .L34+20
 388 0158 C3F800C0 		str	ip, [r3]
 389 015c ABE7     		b	.L15
 390              	.L35:
 391 015e 00BF     		.align	2
 392              	.L34:
 393 0160 00000000 		.word	ch
 394 0164 00000000 		.word	__stack_chk_guard
 395 0168 00000000 		.word	.LANCHOR0
 396 016c 00000000 		.word	.LANCHOR1
 397 0170 00000000 		.word	.LANCHOR2
 398 0174 00000000 		.word	.LANCHOR3
 399 0178 00000000 		.word	.LANCHOR4
ARM GAS  /var/folders/rz/lph8rwt12pb77g4kvq2dx3yc0000gn/T//cccI2v1u.s 			page 8


 400 017c 00000000 		.word	.LC0
 401 0180 00000000 		.word	SDU1
 402 0184 14000000 		.word	.LC1
 403 0188 2C000000 		.word	.LC2
 404 018c 00000000 		.word	.LANCHOR5
 405              		.cfi_endproc
 406              	.LFE258:
 407              		.size	ProcessImage, .-ProcessImage
 408              		.section	.text.CaptureImage,"ax",%progbits
 409              		.align	1
 410              		.p2align 4,,15
 411              		.syntax unified
 412              		.thumb
 413              		.thumb_func
 414              		.fpu fpv4-sp-d16
 415              		.type	CaptureImage, %function
 416              	CaptureImage:
 417              	.LFB257:
 418              		.loc 2 23 0
 419              		.cfi_startproc
 420              		@ Volatile: function does not return.
 421              		@ args = 0, pretend = 0, frame = 8
 422              		@ frame_needed = 0, uses_anonymous_args = 0
 423              	.LVL28:
 424 0000 80B5     		push	{r7, lr}
 425              		.cfi_def_cfa_offset 8
 426              		.cfi_offset 7, -8
 427              		.cfi_offset 14, -4
 428              	.LBB110:
 429              	.LBB111:
 430              		.loc 3 135 0
 431 0002 234C     		ldr	r4, .L42
 432              	.LBE111:
 433              	.LBE110:
 434              		.loc 2 23 0
 435 0004 234A     		ldr	r2, .L42+4
 436              	.LBB114:
 437              	.LBB112:
 438              		.loc 3 135 0
 439 0006 A369     		ldr	r3, [r4, #24]
 440 0008 2349     		ldr	r1, .L42+8
 441              	.LBE112:
 442              	.LBE114:
 443              		.loc 2 23 0
 444 000a 1668     		ldr	r6, [r2]
 445              	.LBB115:
 446              	.LBB113:
 447              		.loc 3 135 0
 448 000c 9961     		str	r1, [r3, #24]
 449              	.LBE113:
 450              	.LBE115:
 451              		.loc 2 23 0
 452 000e 86B0     		sub	sp, sp, #24
 453              		.cfi_def_cfa_offset 32
 454              		.loc 2 29 0
 455 0010 0223     		movs	r3, #2
 456 0012 2025     		movs	r5, #32
ARM GAS  /var/folders/rz/lph8rwt12pb77g4kvq2dx3yc0000gn/T//cccI2v1u.s 			page 9


 457 0014 0A22     		movs	r2, #10
 458 0016 0021     		movs	r1, #0
 459 0018 0093     		str	r3, [sp]
 460              		.loc 2 23 0
 461 001a 0596     		str	r6, [sp, #20]
 462              		.loc 2 29 0
 463 001c 4FF42073 		mov	r3, #640
 464 0020 CDE90155 		strd	r5, r5, [sp, #4]
 465 0024 3020     		movs	r0, #48
 466              	.LVL29:
 467 0026 1D4E     		ldr	r6, .L42+12
 468              	.LBB116:
 469              	.LBB117:
 470              	.LBB118:
 471              	.LBB119:
 472              		.loc 6 367 0
 473 0028 1D4F     		ldr	r7, .L42+16
 474              	.LBE119:
 475              	.LBE118:
 476              	.LBE117:
 477              	.LBE116:
 478              		.loc 2 29 0
 479 002a FFF7FEFF 		bl	po8030_advanced_config
 480              	.LVL30:
 481              		.loc 2 30 0
 482 002e FFF7FEFF 		bl	dcmi_enable_double_buffering
 483              	.LVL31:
 484              		.loc 2 31 0
 485 0032 0020     		movs	r0, #0
 486 0034 FFF7FEFF 		bl	dcmi_set_capture_mode
 487              	.LVL32:
 488              	.LBB137:
 489              	.LBB134:
 490              	.LBB124:
 491              	.LBB125:
 492              		.loc 4 271 0
 493 0038 B046     		mov	r8, r6
 494              	.LBE125:
 495              	.LBE124:
 496              	.LBE134:
 497              	.LBE137:
 498              		.loc 2 32 0
 499 003a FFF7FEFF 		bl	dcmi_prepare
 500              	.LVL33:
 501 003e 13E0     		b	.L39
 502              	.LVL34:
 503              	.L37:
 504              	.LBB138:
 505              	.LBB135:
 506              		.loc 4 286 0
 507 0040 FFF7FEFF 		bl	chSchRescheduleS
 508              	.LVL35:
 509              	.LBB127:
 510              	.LBB123:
 511              		.loc 6 360 0
 512 0044 FFF7FEFF 		bl	_dbg_check_unlock
 513              	.LVL36:
ARM GAS  /var/folders/rz/lph8rwt12pb77g4kvq2dx3yc0000gn/T//cccI2v1u.s 			page 10


 514              		.loc 6 361 0
 515 0048 FFF7FEFF 		bl	_stats_stop_measure_crit_thd
 516              	.LVL37:
 517              		.loc 6 367 0
 518 004c 2368     		ldr	r3, [r4]
 519 004e A342     		cmp	r3, r4
 520 0050 07D0     		beq	.L38
 521 0052 A269     		ldr	r2, [r4, #24]
 522 0054 9B68     		ldr	r3, [r3, #8]
 523 0056 9268     		ldr	r2, [r2, #8]
 524 0058 9A42     		cmp	r2, r3
 525 005a 02D2     		bcs	.L38
 526 005c 3846     		mov	r0, r7
 527 005e FFF7FEFF 		bl	chSysHalt
 528              	.LVL38:
 529              	.L38:
 530              	.LBB120:
 531              	.LBB121:
 532              	.LBB122:
 533              		.loc 5 546 0
 534 0062 0023     		movs	r3, #0
 535              		.syntax unified
 536              	@ 546 "../../lib/e-puck2_main-processor/ChibiOS//os/ext/CMSIS/include/core_cmFunc.h" 1
 537 0064 83F31188 		MSR basepri, r3
 538              	@ 0 "" 2
 539              	.LVL39:
 540              		.thumb
 541              		.syntax unified
 542              	.L39:
 543              	.LBE122:
 544              	.LBE121:
 545              	.LBE120:
 546              	.LBE123:
 547              	.LBE127:
 548              	.LBE135:
 549              	.LBE138:
 550              		.loc 2 36 0 discriminator 1
 551 0068 FFF7FEFF 		bl	dcmi_capture_start
 552              	.LVL40:
 553              		.loc 2 38 0 discriminator 1
 554 006c FFF7FEFF 		bl	wait_image_ready
 555              	.LVL41:
 556              	.LBB139:
 557              	.LBB136:
 558              	.LBB128:
 559              	.LBB129:
 560              	.LBB130:
 561              	.LBB131:
 562              	.LBB132:
 563              		.loc 5 546 0 discriminator 1
 564              		.syntax unified
 565              	@ 546 "../../lib/e-puck2_main-processor/ChibiOS//os/ext/CMSIS/include/core_cmFunc.h" 1
 566 0070 85F31188 		MSR basepri, r5
 567              	@ 0 "" 2
 568              	.LVL42:
 569              		.thumb
 570              		.syntax unified
ARM GAS  /var/folders/rz/lph8rwt12pb77g4kvq2dx3yc0000gn/T//cccI2v1u.s 			page 11


 571              	.LBE132:
 572              	.LBE131:
 573              	.LBE130:
 574              		.loc 6 349 0 discriminator 1
 575 0074 FFF7FEFF 		bl	_stats_start_measure_crit_thd
 576              	.LVL43:
 577              		.loc 6 350 0 discriminator 1
 578 0078 FFF7FEFF 		bl	_dbg_check_lock
 579              	.LVL44:
 580              	.LBE129:
 581              	.LBE128:
 582              	.LBB133:
 583              	.LBB126:
 584              		.loc 4 268 0 discriminator 1
 585 007c FFF7FEFF 		bl	chDbgCheckClassI
 586              	.LVL45:
 587              		.loc 4 270 0 discriminator 1
 588 0080 B368     		ldr	r3, [r6, #8]
 589 0082 002B     		cmp	r3, #0
 590 0084 DCDC     		bgt	.L37
 591              		.loc 4 271 0
 592 0086 4046     		mov	r0, r8
 593 0088 FFF7FEFF 		bl	chSemSignalI
 594              	.LVL46:
 595 008c D8E7     		b	.L37
 596              	.L43:
 597 008e 00BF     		.align	2
 598              	.L42:
 599 0090 00000000 		.word	ch
 600 0094 00000000 		.word	__stack_chk_guard
 601 0098 00000000 		.word	.LANCHOR6
 602 009c 00000000 		.word	.LANCHOR1
 603 00a0 00000000 		.word	.LANCHOR5
 604              	.LBE126:
 605              	.LBE133:
 606              	.LBE136:
 607              	.LBE139:
 608              		.cfi_endproc
 609              	.LFE257:
 610              		.size	CaptureImage, .-CaptureImage
 611              		.section	.text.process_image_start,"ax",%progbits
 612              		.align	1
 613              		.p2align 4,,15
 614              		.global	process_image_start
 615              		.syntax unified
 616              		.thumb
 617              		.thumb_func
 618              		.fpu fpv4-sp-d16
 619              		.type	process_image_start, %function
 620              	process_image_start:
 621              	.LFB259:
 622              		.loc 2 115 0
 623              		.cfi_startproc
 624              		@ args = 0, pretend = 0, frame = 8
 625              		@ frame_needed = 0, uses_anonymous_args = 0
 626 0000 30B5     		push	{r4, r5, lr}
 627              		.cfi_def_cfa_offset 12
ARM GAS  /var/folders/rz/lph8rwt12pb77g4kvq2dx3yc0000gn/T//cccI2v1u.s 			page 12


 628              		.cfi_offset 4, -12
 629              		.cfi_offset 5, -8
 630              		.cfi_offset 14, -4
 631 0002 0E4C     		ldr	r4, .L48
 632              		.loc 2 116 0
 633 0004 0E4B     		ldr	r3, .L48+4
 634              		.loc 2 115 0
 635 0006 2268     		ldr	r2, [r4]
 636              		.loc 2 116 0
 637 0008 0E48     		ldr	r0, .L48+8
 638              		.loc 2 115 0
 639 000a 85B0     		sub	sp, sp, #20
 640              		.cfi_def_cfa_offset 32
 641              		.loc 2 116 0
 642 000c 0025     		movs	r5, #0
 643              		.loc 2 115 0
 644 000e 0392     		str	r2, [sp, #12]
 645              		.loc 2 116 0
 646 0010 40F67811 		movw	r1, #2424
 647 0014 4022     		movs	r2, #64
 648 0016 0095     		str	r5, [sp]
 649 0018 FFF7FEFF 		bl	chThdCreateStatic
 650              	.LVL47:
 651              		.loc 2 117 0
 652 001c 0A4B     		ldr	r3, .L48+12
 653 001e 0095     		str	r5, [sp]
 654 0020 4022     		movs	r2, #64
 655 0022 0A48     		ldr	r0, .L48+16
 656 0024 4FF4AF61 		mov	r1, #1400
 657 0028 FFF7FEFF 		bl	chThdCreateStatic
 658              	.LVL48:
 659              		.loc 2 118 0
 660 002c 039A     		ldr	r2, [sp, #12]
 661 002e 2368     		ldr	r3, [r4]
 662 0030 9A42     		cmp	r2, r3
 663 0032 01D1     		bne	.L47
 664 0034 05B0     		add	sp, sp, #20
 665              		.cfi_remember_state
 666              		.cfi_def_cfa_offset 12
 667              		@ sp needed
 668 0036 30BD     		pop	{r4, r5, pc}
 669              	.L47:
 670              		.cfi_restore_state
 671 0038 FFF7FEFF 		bl	__stack_chk_fail
 672              	.LVL49:
 673              	.L49:
 674              		.align	2
 675              	.L48:
 676 003c 00000000 		.word	__stack_chk_guard
 677 0040 00000000 		.word	ProcessImage
 678 0044 00000000 		.word	.LANCHOR7
 679 0048 00000000 		.word	CaptureImage
 680 004c 00000000 		.word	.LANCHOR8
 681              		.cfi_endproc
 682              	.LFE259:
 683              		.size	process_image_start, .-process_image_start
 684              		.section	.bss.counter_blue,"aw",%nobits
ARM GAS  /var/folders/rz/lph8rwt12pb77g4kvq2dx3yc0000gn/T//cccI2v1u.s 			page 13


 685              		.align	2
 686              		.set	.LANCHOR4,. + 0
 687              		.type	counter_blue, %object
 688              		.size	counter_blue, 4
 689              	counter_blue:
 690 0000 00000000 		.space	4
 691              		.section	.bss.counter_green,"aw",%nobits
 692              		.align	2
 693              		.set	.LANCHOR3,. + 0
 694              		.type	counter_green, %object
 695              		.size	counter_green, 4
 696              	counter_green:
 697 0000 00000000 		.space	4
 698              		.section	.bss.counter_red,"aw",%nobits
 699              		.align	2
 700              		.set	.LANCHOR2,. + 0
 701              		.type	counter_red, %object
 702              		.size	counter_red, 4
 703              	counter_red:
 704 0000 00000000 		.space	4
 705              		.section	.bss.waCaptureImage,"aw",%nobits
 706              		.align	3
 707              		.set	.LANCHOR8,. + 0
 708              		.type	waCaptureImage, %object
 709              		.size	waCaptureImage, 1400
 710              	waCaptureImage:
 711 0000 00000000 		.space	1400
 711      00000000 
 711      00000000 
 711      00000000 
 711      00000000 
 712              		.section	.bss.waProcessImage,"aw",%nobits
 713              		.align	3
 714              		.set	.LANCHOR7,. + 0
 715              		.type	waProcessImage, %object
 716              		.size	waProcessImage, 2424
 717              	waProcessImage:
 718 0000 00000000 		.space	2424
 718      00000000 
 718      00000000 
 718      00000000 
 718      00000000 
 719              		.section	.data.image_ready_sem,"aw",%progbits
 720              		.align	2
 721              		.set	.LANCHOR1,. + 0
 722              		.type	image_ready_sem, %object
 723              		.size	image_ready_sem, 12
 724              	image_ready_sem:
 725 0000 00000000 		.word	image_ready_sem
 726 0004 00000000 		.word	image_ready_sem
 727 0008 00000000 		.word	0
 728              		.section	.rodata.ProcessImage.str1.4,"aMS",%progbits,1
 729              		.align	2
 730              	.LC0:
 731 0000 636F756E 		.ascii	"counter_red = %d\015\012\000"
 731      7465725F 
 731      72656420 
ARM GAS  /var/folders/rz/lph8rwt12pb77g4kvq2dx3yc0000gn/T//cccI2v1u.s 			page 14


 731      3D202564 
 731      0D0A00
 732 0013 00       		.space	1
 733              	.LC1:
 734 0014 636F756E 		.ascii	"counter_green = %d\015\012\000"
 734      7465725F 
 734      67726565 
 734      6E203D20 
 734      25640D0A 
 735 0029 000000   		.space	3
 736              	.LC2:
 737 002c 636F756E 		.ascii	"counter_blue = %d\015\012\000"
 737      7465725F 
 737      626C7565 
 737      203D2025 
 737      640D0A00 
 738              		.section	.rodata.__FUNCTION__.11370,"a",%progbits
 739              		.align	2
 740              		.set	.LANCHOR6,. + 0
 741              		.type	__FUNCTION__.11370, %object
 742              		.size	__FUNCTION__.11370, 13
 743              	__FUNCTION__.11370:
 744 0000 43617074 		.ascii	"CaptureImage\000"
 744      75726549 
 744      6D616765 
 744      00
 745              		.section	.rodata.__FUNCTION__.11376,"a",%progbits
 746              		.align	2
 747              		.set	.LANCHOR0,. + 0
 748              		.type	__FUNCTION__.11376, %object
 749              		.size	__FUNCTION__.11376, 13
 750              	__FUNCTION__.11376:
 751 0000 50726F63 		.ascii	"ProcessImage\000"
 751      65737349 
 751      6D616765 
 751      00
 752              		.section	.rodata.__func__.7153,"a",%progbits
 753              		.align	2
 754              		.set	.LANCHOR5,. + 0
 755              		.type	__func__.7153, %object
 756              		.size	__func__.7153, 12
 757              	__func__.7153:
 758 0000 63685379 		.ascii	"chSysUnlock\000"
 758      73556E6C 
 758      6F636B00 
 759              		.text
 760              	.Letext0:
 761              		.file 8 "/Applications/Eclipse_e-puck2.app/Contents/Eclipse_e-puck2/Tools/gcc-arm-none-eabi-7-2017
 762              		.file 9 "/Applications/Eclipse_e-puck2.app/Contents/Eclipse_e-puck2/Tools/gcc-arm-none-eabi-7-2017
 763              		.file 10 "/Applications/Eclipse_e-puck2.app/Contents/Eclipse_e-puck2/Tools/gcc-arm-none-eabi-7-201
 764              		.file 11 "../../lib/e-puck2_main-processor/ChibiOS//os/rt/ports/ARMCMx/compilers/GCC/chtypes.h"
 765              		.file 12 "../../lib/e-puck2_main-processor/ChibiOS//os/rt/include/chsystypes.h"
 766              		.file 13 "../../lib/e-puck2_main-processor/ChibiOS//os/rt/include/chschd.h"
 767              		.file 14 "../../lib/e-puck2_main-processor/ChibiOS//os/ext/CMSIS/include/core_cm4.h"
 768              		.file 15 "../../lib/e-puck2_main-processor/ChibiOS//os/ext/CMSIS/ST/system_stm32f4xx.h"
 769              		.file 16 "../../lib/e-puck2_main-processor/ChibiOS//os/ext/CMSIS/ST/stm32f407xx.h"
 770              		.file 17 "../../lib/e-puck2_main-processor/ChibiOS//os/rt/ports/ARMCMx/chcore.h"
ARM GAS  /var/folders/rz/lph8rwt12pb77g4kvq2dx3yc0000gn/T//cccI2v1u.s 			page 15


 771              		.file 18 "../../lib/e-puck2_main-processor/ChibiOS//os/rt/ports/ARMCMx/chcore_v7m.h"
 772              		.file 19 "../../lib/e-puck2_main-processor/ChibiOS//os/rt/include/chdebug.h"
 773              		.file 20 "../../lib/e-puck2_main-processor/ChibiOS//os/rt/include/chtm.h"
 774              		.file 21 "../../lib/e-puck2_main-processor/ChibiOS//os/rt/include/chstats.h"
 775              		.file 22 "../../lib/e-puck2_main-processor/ChibiOS//os/rt/include/chsem.h"
 776              		.file 23 "../../lib/e-puck2_main-processor/ChibiOS//os/rt/include/chmtx.h"
 777              		.file 24 "../../lib/e-puck2_main-processor/ChibiOS//os/rt/include/chevents.h"
 778              		.file 25 "../../lib/e-puck2_main-processor/ChibiOS//os/rt/include/chqueues.h"
 779              		.file 26 "../../lib/e-puck2_main-processor/ChibiOS//os/rt/include/chstreams.h"
 780              		.file 27 "../../lib/e-puck2_main-processor/ChibiOS//os/hal/ports/STM32/STM32F4xx/stm32_dma.h"
 781              		.file 28 "../../lib/e-puck2_main-processor/ChibiOS//os/hal/include/hal_ioblock.h"
 782              		.file 29 "../../lib/e-puck2_main-processor/ChibiOS//os/hal/ports/STM32/LLD/GPIOv2/pal_lld.h"
 783              		.file 30 "../../lib/e-puck2_main-processor/ChibiOS//os/hal/include/adc.h"
 784              		.file 31 "../../lib/e-puck2_main-processor/ChibiOS//os/hal/ports/STM32/STM32F4xx/adc_lld.h"
 785              		.file 32 "../../lib/e-puck2_main-processor/ChibiOS//os/hal/include/can.h"
 786              		.file 33 "../../lib/e-puck2_main-processor/ChibiOS//os/hal/ports/STM32/LLD/can_lld.h"
 787              		.file 34 "../../lib/e-puck2_main-processor/ChibiOS//os/hal/include/dac.h"
 788              		.file 35 "../../lib/e-puck2_main-processor/ChibiOS//os/hal/ports/STM32/LLD/DACv1/dac_lld.h"
 789              		.file 36 "../../lib/e-puck2_main-processor/ChibiOS//os/hal/include/ext.h"
 790              		.file 37 "../../lib/e-puck2_main-processor/ChibiOS//os/hal/ports/STM32/LLD/ext_lld.h"
 791              		.file 38 "../../lib/e-puck2_main-processor/ChibiOS//os/hal/include/gpt.h"
 792              		.file 39 "../../lib/e-puck2_main-processor/ChibiOS//os/hal/ports/STM32/LLD/TIMv1/gpt_lld.h"
 793              		.file 40 "../../lib/e-puck2_main-processor/ChibiOS//os/hal/ports/STM32/LLD/TIMv1/stm32_tim.h"
 794              		.file 41 "../../lib/e-puck2_main-processor/ChibiOS//os/hal/include/i2c.h"
 795              		.file 42 "../../lib/e-puck2_main-processor/ChibiOS//os/hal/ports/STM32/LLD/I2Cv1/i2c_lld.h"
 796              		.file 43 "../../lib/e-puck2_main-processor/ChibiOS//os/hal/include/i2s.h"
 797              		.file 44 "../../lib/e-puck2_main-processor/ChibiOS//os/hal/ports/STM32/LLD/SPIv1/i2s_lld.h"
 798              		.file 45 "../../lib/e-puck2_main-processor/ChibiOS//os/hal/include/pwm.h"
 799              		.file 46 "../../lib/e-puck2_main-processor/ChibiOS//os/hal/ports/STM32/LLD/TIMv1/pwm_lld.h"
 800              		.file 47 "../../lib/e-puck2_main-processor/ChibiOS//os/hal/include/serial.h"
 801              		.file 48 "../../lib/e-puck2_main-processor/ChibiOS//os/hal/ports/STM32/LLD/USARTv1/serial_lld.h"
 802              		.file 49 "../../lib/e-puck2_main-processor/ChibiOS//os/hal/include/sdc.h"
 803              		.file 50 "../../lib/e-puck2_main-processor/ChibiOS//os/hal/ports/STM32/LLD/sdc_lld.h"
 804              		.file 51 "../../lib/e-puck2_main-processor/ChibiOS//os/hal/include/spi.h"
 805              		.file 52 "../../lib/e-puck2_main-processor/ChibiOS//os/hal/ports/STM32/LLD/SPIv1/spi_lld.h"
 806              		.file 53 "../../lib/e-puck2_main-processor/ChibiOS//os/hal/include/usb.h"
 807              		.file 54 "../../lib/e-puck2_main-processor/ChibiOS//os/hal/ports/STM32/LLD/OTGv1/usb_lld.h"
 808              		.file 55 "../../lib/e-puck2_main-processor/ChibiOS//os/hal/ports/STM32/LLD/OTGv1/stm32_otg.h"
 809              		.file 56 "../../lib/e-puck2_main-processor/ChibiOS//os/hal/include/serial_usb.h"
 810              		.file 57 "/Applications/Eclipse_e-puck2.app/Contents/Eclipse_e-puck2/Tools/gcc-arm-none-eabi-7-201
 811              		.file 58 "<built-in>"
 812              		.file 59 "../../lib/e-puck2_main-processor/src/usbcfg.h"
 813              		.file 60 "/Applications/Eclipse_e-puck2.app/Contents/Eclipse_e-puck2/Tools/gcc-arm-none-eabi-7-201
 814              		.file 61 "/Applications/Eclipse_e-puck2.app/Contents/Eclipse_e-puck2/Tools/gcc-arm-none-eabi-7-201
 815              		.file 62 "/Applications/Eclipse_e-puck2.app/Contents/Eclipse_e-puck2/Tools/gcc-arm-none-eabi-7-201
 816              		.file 63 "../../lib/e-puck2_main-processor/src/msgbus/messagebus.h"
 817              		.file 64 "../../lib/e-puck2_main-processor/ChibiOS_ext/os/hal/include/../ports/STM32/STM32F4xx/dcm
 818              		.file 65 "../../lib/e-puck2_main-processor/src/camera/po8030.h"
 819              		.file 66 "../../lib/e-puck2_main-processor/src/camera/dcmi_camera.h"
 820              		.file 67 "/Applications/Eclipse_e-puck2.app/Contents/Eclipse_e-puck2/Tools/gcc-arm-none-eabi-7-201
 821              		.file 68 "/Applications/Eclipse_e-puck2.app/Contents/Eclipse_e-puck2/Tools/gcc-arm-none-eabi-7-201
 822              		.file 69 "./main.h"
 823              		.file 70 "../../lib/e-puck2_main-processor/ChibiOS//os/rt/include/chthreads.h"
 824              		.file 71 "../../lib/e-puck2_main-processor/src/leds.h"